

Microchip MPLAB XC8 Assembler V2.10 build 88905656 
                                                                                               Wed Dec 04 15:47:43 2019

Microchip MPLAB XC8 C Compiler v2.10 (Free license) build 20190730164152 Og1 
     1                           	processor	18F4585
     2                           	fnconf	rparam,??,?,0
     3                           	opt	pw 120
     4                           	opt	flic
     5                           	psect	smallconst,global,reloc=2,class=SMALLCONST,delta=1,noexec
     6                           	psect	cinit,global,reloc=2,class=CODE,delta=1
     7                           	psect	bssCOMRAM,global,class=COMRAM,space=1,delta=1,noexec
     8                           	psect	cstackCOMRAM,global,class=COMRAM,space=1,delta=1,noexec
     9                           	psect	text0,global,reloc=2,class=CODE,delta=1
    10                           	psect	text1,global,reloc=2,class=CODE,delta=1,group=1
    11                           	psect	text2,global,reloc=2,class=CODE,delta=1
    12                           	psect	text3,global,reloc=2,class=CODE,delta=1
    13                           	psect	text4,global,reloc=2,class=CODE,delta=1
    14                           	psect	text5,global,reloc=2,class=CODE,delta=1
    15                           	psect	text6,global,reloc=2,class=CODE,delta=1
    16                           	psect	text7,global,reloc=2,class=CODE,delta=1
    17                           	psect	text8,global,reloc=2,class=CODE,delta=1
    18                           	psect	text9,global,reloc=2,class=CODE,delta=1
    19                           	psect	text10,global,reloc=2,class=CODE,delta=1
    20                           	psect	text11,global,reloc=2,class=CODE,delta=1
    21                           	psect	text12,global,reloc=2,class=CODE,delta=1
    22                           	psect	text13,global,reloc=2,class=CODE,delta=1
    23                           	psect	text14,global,reloc=2,class=CODE,delta=1
    24                           	psect	text15,global,reloc=2,class=CODE,delta=1
    25                           	psect	text16,global,reloc=2,class=CODE,delta=1
    26                           	psect	text17,global,reloc=2,class=CODE,delta=1
    27                           	psect	text18,global,reloc=2,class=CODE,delta=1
    28                           	psect	text19,global,reloc=2,class=CODE,delta=1
    29                           	psect	text20,global,reloc=2,class=CODE,delta=1
    30                           	psect	text21,global,reloc=2,class=CODE,delta=1
    31                           	psect	text22,global,reloc=2,class=CODE,delta=1
    32                           	psect	text23,global,reloc=2,class=CODE,delta=1
    33                           	psect	text24,global,reloc=2,class=CODE,delta=1
    34                           	psect	text25,global,reloc=2,class=CODE,delta=1
    35                           	psect	text26,global,reloc=2,class=CODE,delta=1
    36                           	psect	text27,global,reloc=2,class=CODE,delta=1
    37                           	psect	text28,global,reloc=2,class=CODE,delta=1
    38                           	psect	text29,global,reloc=2,class=CODE,delta=1
    39                           	psect	intcode,global,reloc=2,class=CODE,delta=1
    40                           	psect	intcode_body,global,reloc=2,class=CODE,delta=1
    41                           	psect	text31,global,reloc=2,class=CODE,delta=1
    42                           	psect	text32,global,reloc=2,class=CODE,delta=1
    43                           	psect	text33,global,reloc=2,class=CODE,delta=1
    44                           	psect	text34,global,reloc=2,class=CODE,delta=1
    45                           	psect	text35,global,reloc=2,class=CODE,delta=1
    46                           	psect	text36,global,reloc=2,class=CODE,delta=1
    47                           	psect	intsave_regs,global,class=BIGRAM,space=1,delta=1,noexec
    48                           	psect	rparam,global,class=COMRAM,space=1,delta=1,noexec
    49                           	psect	temp,global,ovrld,common,class=COMRAM,space=1,delta=1
    50  0000                     
    51                           ; Version 2.10
    52                           ; Generated 31/07/2019 GMT
    53                           ; 
    54                           ; Copyright © 2019, Microchip Technology Inc. and its subsidiaries ("Microchip")
    55                           ; All rights reserved.
    56                           ; 
    57                           ; This software is developed by Microchip Technology Inc. and its subsidiaries ("Microch
      +                          ip").
    58                           ; 
    59                           ; Redistribution and use in source and binary forms, with or without modification, are
    60                           ; permitted provided that the following conditions are met:
    61                           ; 
    62                           ;     1. Redistributions of source code must retain the above copyright notice, this lis
      +                          t of
    63                           ;        conditions and the following disclaimer.
    64                           ; 
    65                           ;     2. Redistributions in binary form must reproduce the above copyright notice, this 
      +                          list
    66                           ;        of conditions and the following disclaimer in the documentation and/or other
    67                           ;        materials provided with the distribution.
    68                           ; 
    69                           ;     3. Microchip's name may not be used to endorse or promote products derived from th
      +                          is
    70                           ;        software without specific prior written permission.
    71                           ; 
    72                           ; THIS SOFTWARE IS PROVIDED BY MICROCHIP "AS IS" AND ANY EXPRESS OR IMPLIED WARRANTIES,
    73                           ; INCLUDING, BUT NOT LIMITED TO, THE IMPLIED WARRANTIES OF MERCHANTABILITY AND FITNESS F
      +                          OR
    74                           ; PURPOSE ARE DISCLAIMED.  IN NO EVENT SHALL MICROCHIP BE LIABLE FOR ANY DIRECT, INDIREC
      +                          T,
    75                           ; INCIDENTAL, SPECIAL, EXEMPLARY, OR CONSEQUENTIAL DAMAGES (INCLUDING BUT NOT LIMITED TO
    76                           ; PROCUREMENT OF SUBSTITUTE GOODS OR SERVICES; LOSS OF USE, DATA OR PROFITS; OR BUSINESS
    77                           ; INTERRUPTION) HOWSOEVER CAUSED AND ON ANY THEORY OF LIABILITY, WHETHER IN CONTRACT, ST
      +                          RICT
    78                           ; LIABILITY, OR TORT (INCLUDING NEGLIGENCE OR OTHERWISE) ARISING IN ANY WAY OUT OF THE U
      +                          SE OF
    79                           ; THIS SOFTWARE, EVEN IF ADVISED OF THE POSSIBILITY OF SUCH DAMAGE.
    80                           ; 
    81                           ; 
    82                           ; Code-generator required, PIC18F4585 Definitions
    83                           ; 
    84                           ; SFR Addresses
    85  0000                     _LATBbits	set	3978
    86  0000                     _INTCON2bits	set	4081
    87  0000                     _RCONbits	set	4048
    88  0000                     _TRISBbits	set	3987
    89  0000                     _INTCON3bits	set	4080
    90  0000                     _INTCONbits	set	4082
    91  0000                     _RCSTAbits	set	4011
    92  0000                     _PORTEbits	set	3972
    93  0000                     _PORTAbits	set	3968
    94  0000                     _TRISEbits	set	3990
    95  0000                     _PORTE	set	3972
    96  0000                     _PORTD	set	3971
    97  0000                     _PORTC	set	3970
    98  0000                     _PORTB	set	3969
    99  0000                     _PORTA	set	3968
   100  0000                     _RCREG	set	4014
   101  0000                     _PIR1bits	set	3998
   102  0000                     _TXREG	set	4013
   103  0000                     _TXSTAbits	set	4012
   104  0000                     _SPBRG	set	4015
   105  0000                     _RCSTA	set	4011
   106  0000                     _TXSTA	set	4012
   107  0000                     _PORTDbits	set	3971
   108  0000                     _LATDbits	set	3980
   109  0000                     _TRISDbits	set	3989
   110  0000                     _ADCON1	set	4033
   111  0000                     _CVRCONbits	set	4021
   112  0000                     _CMCON	set	4020
   113  0000                     _OSCCON	set	4051
   114  0000                     _PORTCbits	set	3970
   115  0000                     _TRISAbits	set	3986
   116  0000                     _TRISCbits	set	3988
   117                           
   118                           	psect	smallconst
   119  000D00                     __psmallconst:
   120                           	opt callstack 0
   121  000D00  00                 	db	0
   122  000D01                     STR_6:
   123  000D01  63                 	db	99	;'c'
   124  000D02  6F                 	db	111	;'o'
   125  000D03  6F                 	db	111	;'o'
   126  000D04  72                 	db	114	;'r'
   127  000D05  64                 	db	100	;'d'
   128  000D06  65                 	db	101	;'e'
   129  000D07  6E                 	db	110	;'n'
   130  000D08  61                 	db	97	;'a'
   131  000D09  64                 	db	100	;'d'
   132  000D0A  61                 	db	97	;'a'
   133  000D0B  73                 	db	115	;'s'
   134  000D0C  20                 	db	32
   135  000D0D  66                 	db	102	;'f'
   136  000D0E  75                 	db	117	;'u'
   137  000D0F  65                 	db	101	;'e'
   138  000D10  72                 	db	114	;'r'
   139  000D11  61                 	db	97	;'a'
   140  000D12  20                 	db	32
   141  000D13  64                 	db	100	;'d'
   142  000D14  65                 	db	101	;'e'
   143  000D15  6C                 	db	108	;'l'
   144  000D16  20                 	db	32
   145  000D17  6C                 	db	108	;'l'
   146  000D18  69                 	db	105	;'i'
   147  000D19  6D                 	db	109	;'m'
   148  000D1A  69                 	db	105	;'i'
   149  000D1B  74                 	db	116	;'t'
   150  000D1C  65                 	db	101	;'e'
   151  000D1D  00                 	db	0
   152  000D1E                     STR_5:
   153  000D1E  43                 	db	67	;'C'
   154  000D1F  6F                 	db	111	;'o'
   155  000D20  6D                 	db	109	;'m'
   156  000D21  61                 	db	97	;'a'
   157  000D22  6E                 	db	110	;'n'
   158  000D23  64                 	db	100	;'d'
   159  000D24  6F                 	db	111	;'o'
   160  000D25  20                 	db	32
   161  000D26  6E                 	db	110	;'n'
   162  000D27  6F                 	db	111	;'o'
   163  000D28  20                 	db	32
   164  000D29  72                 	db	114	;'r'
   165  000D2A  65                 	db	101	;'e'
   166  000D2B  63                 	db	99	;'c'
   167  000D2C  6F                 	db	111	;'o'
   168  000D2D  6E                 	db	110	;'n'
   169  000D2E  6F                 	db	111	;'o'
   170  000D2F  63                 	db	99	;'c'
   171  000D30  69                 	db	105	;'i'
   172  000D31  64                 	db	100	;'d'
   173  000D32  6F                 	db	111	;'o'
   174  000D33  00                 	db	0
   175  000D34                     STR_7:
   176  000D34  50                 	db	80	;'P'
   177  000D35  72                 	db	114	;'r'
   178  000D36  6F                 	db	111	;'o'
   179  000D37  63                 	db	99	;'c'
   180  000D38  65                 	db	101	;'e'
   181  000D39  73                 	db	115	;'s'
   182  000D3A  6F                 	db	111	;'o'
   183  000D3B  20                 	db	32
   184  000D3C  63                 	db	99	;'c'
   185  000D3D  6F                 	db	111	;'o'
   186  000D3E  6D                 	db	109	;'m'
   187  000D3F  70                 	db	112	;'p'
   188  000D40  6C                 	db	108	;'l'
   189  000D41  65                 	db	101	;'e'
   190  000D42  74                 	db	116	;'t'
   191  000D43  61                 	db	97	;'a'
   192  000D44  64                 	db	100	;'d'
   193  000D45  6F                 	db	111	;'o'
   194  000D46  00                 	db	0
   195  000D47                     STR_2:
   196  000D47  49                 	db	73	;'I'
   197  000D48  4E                 	db	78	;'N'
   198  000D49  54                 	db	84	;'T'
   199  000D4A  45                 	db	69	;'E'
   200  000D4B  52                 	db	82	;'R'
   201  000D4C  52                 	db	82	;'R'
   202  000D4D  55                 	db	85	;'U'
   203  000D4E  50                 	db	80	;'P'
   204  000D4F  43                 	db	67	;'C'
   205  000D50  49                 	db	73	;'I'
   206  000D51  4F                 	db	79	;'O'
   207  000D52  4E                 	db	78	;'N'
   208  000D53  20                 	db	32
   209  000D54  30                 	db	48	;'0'
   210  000D55  00                 	db	0
   211  000D56                     STR_3:
   212  000D56  49                 	db	73	;'I'
   213  000D57  4E                 	db	78	;'N'
   214  000D58  54                 	db	84	;'T'
   215  000D59  45                 	db	69	;'E'
   216  000D5A  52                 	db	82	;'R'
   217  000D5B  52                 	db	82	;'R'
   218  000D5C  55                 	db	85	;'U'
   219  000D5D  50                 	db	80	;'P'
   220  000D5E  43                 	db	67	;'C'
   221  000D5F  49                 	db	73	;'I'
   222  000D60  4F                 	db	79	;'O'
   223  000D61  4E                 	db	78	;'N'
   224  000D62  20                 	db	32
   225  000D63  31                 	db	49	;'1'
   226  000D64  00                 	db	0
   227  000D65                     STR_4:
   228  000D65  49                 	db	73	;'I'
   229  000D66  4E                 	db	78	;'N'
   230  000D67  54                 	db	84	;'T'
   231  000D68  45                 	db	69	;'E'
   232  000D69  52                 	db	82	;'R'
   233  000D6A  52                 	db	82	;'R'
   234  000D6B  55                 	db	85	;'U'
   235  000D6C  50                 	db	80	;'P'
   236  000D6D  43                 	db	67	;'C'
   237  000D6E  49                 	db	73	;'I'
   238  000D6F  4F                 	db	79	;'O'
   239  000D70  4E                 	db	78	;'N'
   240  000D71  20                 	db	32
   241  000D72  32                 	db	50	;'2'
   242  000D73  00                 	db	0
   243  000D74                     STR_1:
   244  000D74  4C                 	db	76	;'L'
   245  000D75  49                 	db	73	;'I'
   246  000D76  53                 	db	83	;'S'
   247  000D77  54                 	db	84	;'T'
   248  000D78  4F                 	db	79	;'O'
   249  000D79  20                 	db	32
   250  000D7A  41                 	db	65	;'A'
   251  000D7B  4A                 	db	74	;'J'
   252  000D7C  55                 	db	85	;'U'
   253  000D7D  53                 	db	83	;'S'
   254  000D7E  54                 	db	84	;'T'
   255  000D7F  45                 	db	69	;'E'
   256  000D80  20                 	db	32
   257  000D81  5A                 	db	90	;'Z'
   258  000D82  00                 	db	0
   259  000D83                     STR_8:
   260  000D83  45                 	db	69	;'E'
   261  000D84  6E                 	db	110	;'n'
   262  000D85  20                 	db	32
   263  000D86  70                 	db	112	;'p'
   264  000D87  72                 	db	114	;'r'
   265  000D88  6F                 	db	111	;'o'
   266  000D89  63                 	db	99	;'c'
   267  000D8A  65                 	db	101	;'e'
   268  000D8B  73                 	db	115	;'s'
   269  000D8C  6F                 	db	111	;'o'
   270  000D8D  00                 	db	0
   271                           
   272                           ; #config settings
   273  000D8E  00                 	db	0	; dummy byte at the end
   274  0000                     
   275                           	psect	cinit
   276  001974                     __pcinit:
   277                           	opt callstack 0
   278  001974                     start_initialization:
   279                           	opt callstack 0
   280  001974                     __initialization:
   281                           	opt callstack 0
   282                           
   283                           ; Clear objects allocated to COMRAM (17 bytes)
   284  001974  EE00  F02C         	lfsr	0,__pbssCOMRAM
   285  001978  0E11               	movlw	17
   286  00197A                     clear_0:
   287  00197A  6AEE               	clrf	postinc0,c
   288  00197C  06E8               	decf	wreg,f,c
   289  00197E  E1FD               	bnz	clear_0
   290  001980                     end_of_initialization:
   291                           	opt callstack 0
   292  001980                     __end_of__initialization:
   293                           	opt callstack 0
   294  001980  903D               	bcf	int$flags,0,c	;clear compiler interrupt flag (level 1)
   295  001982  923D               	bcf	int$flags,1,c	;clear compiler interrupt flag (level 2)
   296  001984  0E00               	movlw	low (__Lmediumconst shr (0+16))
   297  001986  6EF8               	movwf	tblptru,c
   298  001988  0100               	movlb	0
   299  00198A  EFC8  F006         	goto	_main	;jump to C main() function
   300                           
   301                           	psect	bssCOMRAM
   302  00002C                     __pbssCOMRAM:
   303                           	opt callstack 0
   304  00002C                     _PosicionY:
   305                           	opt callstack 0
   306  00002C                     	ds	2
   307  00002E                     _PosicionX:
   308                           	opt callstack 0
   309  00002E                     	ds	2
   310  000030                     _YReceive:
   311                           	opt callstack 0
   312  000030                     	ds	2
   313  000032                     _XReceive:
   314                           	opt callstack 0
   315  000032                     	ds	2
   316  000034                     _Y:
   317                           	opt callstack 0
   318  000034                     	ds	2
   319  000036                     _X:
   320                           	opt callstack 0
   321  000036                     	ds	2
   322  000038                     _AjusteZ:
   323                           	opt callstack 0
   324  000038                     	ds	1
   325  000039                     _TaskReceive:
   326                           	opt callstack 0
   327  000039                     	ds	1
   328  00003A                     _BuscandoHomeY:
   329                           	opt callstack 0
   330  00003A                     	ds	1
   331  00003B                     _BuscandoHomeX:
   332                           	opt callstack 0
   333  00003B                     	ds	1
   334  00003C                     _RX_Data:
   335                           	opt callstack 0
   336  00003C                     	ds	1
   337                           
   338                           	psect	cstackCOMRAM
   339  000001                     __pcstackCOMRAM:
   340                           	opt callstack 0
   341  000001                     i2SEND_UART@TX_Data:
   342                           	opt callstack 0
   343  000001                     i2MOV_R_PASOS_X@posicion:
   344                           	opt callstack 0
   345  000001                     i2MOV_L_PASOS_X@posicion:
   346                           	opt callstack 0
   347  000001                     i2MOV_R_PASOS_Y@posicion:
   348                           	opt callstack 0
   349  000001                     i2MOV_L_PASOS_Y@posicion:
   350                           	opt callstack 0
   351                           
   352                           ; 2 bytes @ 0x0
   353  000001                     	ds	1
   354  000002                     i2SEND_STRING@PointString:
   355                           	opt callstack 0
   356                           
   357                           ; 2 bytes @ 0x1
   358  000002                     	ds	1
   359  000003                     i2MOV_R_PASOS_X@coordenada:
   360                           	opt callstack 0
   361  000003                     i2MOV_L_PASOS_X@coordenada:
   362                           	opt callstack 0
   363  000003                     i2MOV_R_PASOS_Y@coordenada:
   364                           	opt callstack 0
   365  000003                     i2MOV_L_PASOS_Y@coordenada:
   366                           	opt callstack 0
   367                           
   368                           ; 2 bytes @ 0x2
   369  000003                     	ds	1
   370  000004                     ??i2_SEND_STRING:
   371                           
   372                           ; 1 bytes @ 0x3
   373  000004                     	ds	1
   374  000005                     i2MOV_R_PASOS_X@i:
   375                           	opt callstack 0
   376  000005                     i2MOV_L_PASOS_X@i:
   377                           	opt callstack 0
   378  000005                     i2MOV_R_PASOS_Y@i:
   379                           	opt callstack 0
   380  000005                     i2MOV_L_PASOS_Y@i:
   381                           	opt callstack 0
   382                           
   383                           ; 1 bytes @ 0x4
   384  000005                     	ds	2
   385  000007                     i2SEND_STRING@i:
   386                           	opt callstack 0
   387                           
   388                           ; 1 bytes @ 0x6
   389  000007                     	ds	1
   390  000008                     ??_INT_isr:
   391                           
   392                           ; 1 bytes @ 0x7
   393  000008                     	ds	6
   394  00000E                     ?_MOV_R_PASOS_X:
   395                           	opt callstack 0
   396  00000E                     ?_MOV_L_PASOS_X:
   397                           	opt callstack 0
   398  00000E                     ?_MOV_R_PASOS_Y:
   399                           	opt callstack 0
   400  00000E                     ?_MOV_L_PASOS_Y:
   401                           	opt callstack 0
   402  00000E                     ?___wmul:
   403                           	opt callstack 0
   404  00000E                     SEND_UART@TX_Data:
   405                           	opt callstack 0
   406  00000E                     RECEIVE_STRING@guardarscan:
   407                           	opt callstack 0
   408  00000E                     MOV_R_PASOS_X@posicion:
   409                           	opt callstack 0
   410  00000E                     MOV_L_PASOS_X@posicion:
   411                           	opt callstack 0
   412  00000E                     MOV_R_PASOS_Y@posicion:
   413                           	opt callstack 0
   414  00000E                     MOV_L_PASOS_Y@posicion:
   415                           	opt callstack 0
   416  00000E                     ___wmul@multiplier:
   417                           	opt callstack 0
   418                           
   419                           ; 2 bytes @ 0xD
   420  00000E                     	ds	1
   421  00000F                     SEND_STRING@PointString:
   422                           	opt callstack 0
   423                           
   424                           ; 2 bytes @ 0xE
   425  00000F                     	ds	1
   426  000010                     RECEIVE_STRING@numcaracteres:
   427                           	opt callstack 0
   428  000010                     MOV_R_PASOS_X@coordenada:
   429                           	opt callstack 0
   430  000010                     MOV_L_PASOS_X@coordenada:
   431                           	opt callstack 0
   432  000010                     MOV_R_PASOS_Y@coordenada:
   433                           	opt callstack 0
   434  000010                     MOV_L_PASOS_Y@coordenada:
   435                           	opt callstack 0
   436  000010                     ___wmul@multiplicand:
   437                           	opt callstack 0
   438                           
   439                           ; 2 bytes @ 0xF
   440  000010                     	ds	1
   441  000011                     ??_SEND_STRING:
   442  000011                     RECEIVE_STRING@i:
   443                           	opt callstack 0
   444                           
   445                           ; 1 bytes @ 0x10
   446  000011                     	ds	1
   447  000012                     MOV_R_PASOS_X@i:
   448                           	opt callstack 0
   449  000012                     MOV_L_PASOS_X@i:
   450                           	opt callstack 0
   451  000012                     MOV_R_PASOS_Y@i:
   452                           	opt callstack 0
   453  000012                     MOV_L_PASOS_Y@i:
   454                           	opt callstack 0
   455  000012                     ___wmul@product:
   456                           	opt callstack 0
   457                           
   458                           ; 2 bytes @ 0x11
   459  000012                     	ds	2
   460  000014                     SEND_STRING@i:
   461                           	opt callstack 0
   462                           
   463                           ; 1 bytes @ 0x13
   464  000014                     	ds	1
   465  000015                     ??_main:
   466                           
   467                           ; 1 bytes @ 0x14
   468  000015                     	ds	2
   469  000017                     main@Centenasx:
   470                           	opt callstack 0
   471                           
   472                           ; 2 bytes @ 0x16
   473  000017                     	ds	2
   474  000019                     main@Decenasx:
   475                           	opt callstack 0
   476                           
   477                           ; 2 bytes @ 0x18
   478  000019                     	ds	2
   479  00001B                     main@Unidadx:
   480                           	opt callstack 0
   481                           
   482                           ; 2 bytes @ 0x1A
   483  00001B                     	ds	2
   484  00001D                     main@Centenasy:
   485                           	opt callstack 0
   486                           
   487                           ; 2 bytes @ 0x1C
   488  00001D                     	ds	2
   489  00001F                     main@Decenasy:
   490                           	opt callstack 0
   491                           
   492                           ; 2 bytes @ 0x1E
   493  00001F                     	ds	2
   494  000021                     main@Unidady:
   495                           	opt callstack 0
   496                           
   497                           ; 2 bytes @ 0x20
   498  000021                     	ds	2
   499  000023                     main@Ptrcoordenadas:
   500                           	opt callstack 0
   501                           
   502                           ; 2 bytes @ 0x22
   503  000023                     	ds	2
   504  000025                     main@Task:
   505                           	opt callstack 0
   506                           
   507                           ; 1 bytes @ 0x24
   508  000025                     	ds	1
   509  000026                     main@Instruccion:
   510                           	opt callstack 0
   511                           
   512                           ; 6 bytes @ 0x25
   513  000026                     	ds	6
   514                           
   515 ;;
   516 ;;Main: autosize = 0, tempsize = 2, incstack = 0, save=0
   517 ;;
   518 ;; *************** function _main *****************
   519 ;; Defined at:
   520 ;;		line 27 in file "SPARC_4585.c"
   521 ;; Parameters:    Size  Location     Type
   522 ;;		None
   523 ;; Auto vars:     Size  Location     Type
   524 ;;  Ptrcoordenad    2   34[COMRAM] PTR unsigned char 
   525 ;;		 -> main@Instruccion(6), 
   526 ;;  Unidady         2   32[COMRAM] unsigned short 
   527 ;;  Decenasy        2   30[COMRAM] unsigned short 
   528 ;;  Centenasy       2   28[COMRAM] unsigned short 
   529 ;;  Unidadx         2   26[COMRAM] unsigned short 
   530 ;;  Decenasx        2   24[COMRAM] unsigned short 
   531 ;;  Centenasx       2   22[COMRAM] unsigned short 
   532 ;;  Instruccion     6   37[COMRAM] struct .
   533 ;;  Task            1   36[COMRAM] unsigned char 
   534 ;; Return value:  Size  Location     Type
   535 ;;                  1    wreg      void 
   536 ;; Registers used:
   537 ;;		wreg, fsr0l, fsr0h, fsr2l, fsr2h, status,2, status,0, tblptrl, tblptrh, tblptru, prodl, prodh, cstack
   538 ;; Tracked objects:
   539 ;;		On entry : 0/0
   540 ;;		On exit  : 0/0
   541 ;;		Unchanged: 0/0
   542 ;; Data sizes:     COMRAM   BANK0   BANK1   BANK2   BANK3   BANK4   BANK5   BANK6   BANK7   BANK8   BANK9  BANK10  BANK1
      +1  BANK12
   543 ;;      Params:         0       0       0       0       0       0       0       0       0       0       0       0       
      +0       0
   544 ;;      Locals:        21       0       0       0       0       0       0       0       0       0       0       0       
      +0       0
   545 ;;      Temps:          2       0       0       0       0       0       0       0       0       0       0       0       
      +0       0
   546 ;;      Totals:        23       0       0       0       0       0       0       0       0       0       0       0       
      +0       0
   547 ;;Total ram usage:       23 bytes
   548 ;; Hardware stack levels required when called:    6
   549 ;; This function calls:
   550 ;;		_DOWN_PLATFORM
   551 ;;		_ERROR_FUERA_LIMITE
   552 ;;		_ERROR_LEDS
   553 ;;		_ERROR_NO_COMANDO
   554 ;;		_INIT_BUTTONS
   555 ;;		_INIT_DC
   556 ;;		_INIT_GPIO
   557 ;;		_INIT_INT
   558 ;;		_INIT_LEDS
   559 ;;		_INIT_STEP
   560 ;;		_INIT_UART
   561 ;;		_LEDS_OFF
   562 ;;		_MOV_L_PASOS_X
   563 ;;		_MOV_L_PASOS_Y
   564 ;;		_MOV_R_PASOS_X
   565 ;;		_MOV_R_PASOS_Y
   566 ;;		_PROCESO
   567 ;;		_PROCESO_LEDS
   568 ;;		_RECEIVE_STRING
   569 ;;		_RECEIVE_UART
   570 ;;		_SEND_STRING
   571 ;;		_TERMINADO
   572 ;;		_TERMINADO_LEDS
   573 ;;		_UP_PLATFORM
   574 ;;		___wmul
   575 ;; This function is called by:
   576 ;;		Startup code after reset
   577 ;; This function uses a non-reentrant model
   578 ;;
   579                           
   580                           	psect	text0
   581  000D90                     __ptext0:
   582                           	opt callstack 0
   583  000D90                     _main:
   584                           	opt callstack 25
   585  000D90                     
   586                           ;SPARC_4585.c: 32:     PORTA = 0x00;
   587  000D90  0E00               	movlw	0
   588  000D92  6E80               	movwf	128,c	;volatile
   589                           
   590                           ;SPARC_4585.c: 33:     PORTB = 0x00;
   591  000D94  0E00               	movlw	0
   592  000D96  6E81               	movwf	129,c	;volatile
   593                           
   594                           ;SPARC_4585.c: 34:     PORTC = 0x00;
   595  000D98  0E00               	movlw	0
   596  000D9A  6E82               	movwf	130,c	;volatile
   597                           
   598                           ;SPARC_4585.c: 35:     PORTD = 0x00;
   599  000D9C  0E00               	movlw	0
   600  000D9E  6E83               	movwf	131,c	;volatile
   601                           
   602                           ;SPARC_4585.c: 36:     PORTE = 0x00;
   603  000DA0  0E00               	movlw	0
   604  000DA2  6E84               	movwf	132,c	;volatile
   605  000DA4                     
   606                           ;SPARC_4585.c: 41:     INIT_GPIO();
   607  000DA4  EC2E  F00D         	call	_INIT_GPIO	;wreg free
   608                           
   609                           ;SPARC_4585.c: 42:     INIT_INT();
   610  000DA8  EC8C  F00C         	call	_INIT_INT	;wreg free
   611  000DAC                     
   612                           ;SPARC_4585.c: 43:     INIT_UART();
   613  000DAC  EC1E  F00D         	call	_INIT_UART	;wreg free
   614  000DB0                     
   615                           ;SPARC_4585.c: 44:     INIT_STEP();
   616  000DB0  EC27  F00D         	call	_INIT_STEP	;wreg free
   617  000DB4                     
   618                           ;SPARC_4585.c: 45:     INIT_BUTTONS();
   619  000DB4  EC4D  F00D         	call	_INIT_BUTTONS	;wreg free
   620  000DB8                     
   621                           ;SPARC_4585.c: 46:     INIT_DC();
   622  000DB8  EC49  F00D         	call	_INIT_DC	;wreg free
   623  000DBC                     
   624                           ;SPARC_4585.c: 47:     INIT_LEDS();
   625  000DBC  EC45  F00D         	call	_INIT_LEDS	;wreg free
   626  000DC0                     
   627                           ;SPARC_4585.c: 49:     TRISEbits.RE0 = 0;
   628  000DC0  9096               	bcf	150,0,c	;volatile
   629                           
   630                           ;SPARC_4585.c: 62:     while (BuscandoHomeX == 0 || BuscandoHomeY == 0) {
   631  000DC2  EF09  F007         	goto	l1882
   632  000DC6                     l1874:
   633                           
   634                           ;SPARC_4585.c: 64:             MOV_L_PASOS_X(300, 0);
   635  000DC6  0E01               	movlw	1
   636  000DC8  6E0F               	movwf	(MOV_L_PASOS_X@posicion+1)^0,c
   637  000DCA  0E2C               	movlw	44
   638  000DCC  6E0E               	movwf	MOV_L_PASOS_X@posicion^0,c
   639  000DCE  0E00               	movlw	0
   640  000DD0  6E11               	movwf	(MOV_L_PASOS_X@coordenada+1)^0,c
   641  000DD2  0E00               	movlw	0
   642  000DD4  6E10               	movwf	MOV_L_PASOS_X@coordenada^0,c
   643  000DD6  ECAF  F00B         	call	_MOV_L_PASOS_X	;wreg free
   644  000DDA                     l1876:
   645                           
   646                           ;SPARC_4585.c: 63:         while (BuscandoHomeX == 0) {
   647  000DDA  503B               	movf	_BuscandoHomeX^0,w,c
   648  000DDC  B4D8               	btfsc	status,2,c
   649  000DDE  EFF3  F006         	goto	u1171
   650  000DE2  EFF5  F006         	goto	u1170
   651  000DE6                     u1171:
   652  000DE6  EFE3  F006         	goto	l1874
   653  000DEA                     u1170:
   654  000DEA  EF01  F007         	goto	l1880
   655  000DEE                     l1878:
   656                           
   657                           ;SPARC_4585.c: 67:             MOV_L_PASOS_Y(300, 0);
   658  000DEE  0E01               	movlw	1
   659  000DF0  6E0F               	movwf	(MOV_L_PASOS_Y@posicion+1)^0,c
   660  000DF2  0E2C               	movlw	44
   661  000DF4  6E0E               	movwf	MOV_L_PASOS_Y@posicion^0,c
   662  000DF6  0E00               	movlw	0
   663  000DF8  6E11               	movwf	(MOV_L_PASOS_Y@coordenada+1)^0,c
   664  000DFA  0E00               	movlw	0
   665  000DFC  6E10               	movwf	MOV_L_PASOS_Y@coordenada^0,c
   666  000DFE  EC73  F00B         	call	_MOV_L_PASOS_Y	;wreg free
   667  000E02                     l1880:
   668                           
   669                           ;SPARC_4585.c: 66:         while (BuscandoHomeY == 0) {
   670  000E02  503A               	movf	_BuscandoHomeY^0,w,c
   671  000E04  B4D8               	btfsc	status,2,c
   672  000E06  EF07  F007         	goto	u1181
   673  000E0A  EF09  F007         	goto	u1180
   674  000E0E                     u1181:
   675  000E0E  EFF7  F006         	goto	l1878
   676  000E12                     u1180:
   677  000E12                     l1882:
   678                           
   679                           ;SPARC_4585.c: 62:     while (BuscandoHomeX == 0 || BuscandoHomeY == 0) {
   680  000E12  503B               	movf	_BuscandoHomeX^0,w,c
   681  000E14  B4D8               	btfsc	status,2,c
   682  000E16  EF0F  F007         	goto	u1191
   683  000E1A  EF11  F007         	goto	u1190
   684  000E1E                     u1191:
   685  000E1E  EFED  F006         	goto	l1876
   686  000E22                     u1190:
   687  000E22  503A               	movf	_BuscandoHomeY^0,w,c
   688  000E24  B4D8               	btfsc	status,2,c
   689  000E26  EF17  F007         	goto	u1201
   690  000E2A  EF19  F007         	goto	u1200
   691  000E2E                     u1201:
   692  000E2E  EFED  F006         	goto	l1876
   693  000E32                     u1200:
   694  000E32  EF2E  F007         	goto	l1894
   695  000E36                     l1886:
   696                           
   697                           ;SPARC_4585.c: 72:         UP_PLATFORM();
   698  000E36  EC9E  F00C         	call	_UP_PLATFORM	;wreg free
   699                           
   700                           ;SPARC_4585.c: 73:         DOWN_PLATFORM();
   701  000E3A  ECAC  F00C         	call	_DOWN_PLATFORM	;wreg free
   702  000E3E                     
   703                           ;SPARC_4585.c: 74:         if (PORTAbits.RA5 == 1) {
   704  000E3E  AA80               	btfss	128,5,c	;volatile
   705  000E40  EF24  F007         	goto	u1211
   706  000E44  EF26  F007         	goto	u1210
   707  000E48                     u1211:
   708  000E48  EF2E  F007         	goto	l1894
   709  000E4C                     u1210:
   710  000E4C                     
   711                           ;SPARC_4585.c: 75:             AjusteZ = 1;
   712  000E4C  0E01               	movlw	1
   713  000E4E  6E38               	movwf	_AjusteZ^0,c
   714  000E50                     
   715                           ;SPARC_4585.c: 76:             SEND_STRING("LISTO AJUSTE Z");
   716  000E50  0E74               	movlw	low STR_1
   717  000E52  6E0F               	movwf	SEND_STRING@PointString^0,c
   718  000E54  0E0D               	movlw	high STR_1
   719  000E56  6E10               	movwf	(SEND_STRING@PointString+1)^0,c
   720  000E58  EC19  F00A         	call	_SEND_STRING	;wreg free
   721  000E5C                     l1894:
   722                           
   723                           ;SPARC_4585.c: 71:     while (AjusteZ == 0) {
   724  000E5C  5038               	movf	_AjusteZ^0,w,c
   725  000E5E  B4D8               	btfsc	status,2,c
   726  000E60  EF34  F007         	goto	u1221
   727  000E64  EF36  F007         	goto	u1220
   728  000E68                     u1221:
   729  000E68  EF1B  F007         	goto	l1886
   730  000E6C                     u1220:
   731  000E6C  EFF2  F007         	goto	l1992
   732  000E70                     l1896:
   733                           
   734                           ;SPARC_4585.c: 83:             Task = RECEIVE_UART();
   735  000E70  ECD4  F00C         	call	_RECEIVE_UART	;wreg free
   736  000E74  6E25               	movwf	main@Task^0,c
   737  000E76                     
   738                           ;SPARC_4585.c: 85:             if (Task != 72 && Task != 71 && Task != 84 && Task != 83)
      +                           {
   739  000E76  0E48               	movlw	72
   740  000E78  1825               	xorwf	main@Task^0,w,c
   741  000E7A  B4D8               	btfsc	status,2,c
   742  000E7C  EF42  F007         	goto	u1231
   743  000E80  EF44  F007         	goto	u1230
   744  000E84                     u1231:
   745  000E84  EF65  F007         	goto	l1912
   746  000E88                     u1230:
   747  000E88  0E47               	movlw	71
   748  000E8A  1825               	xorwf	main@Task^0,w,c
   749  000E8C  B4D8               	btfsc	status,2,c
   750  000E8E  EF4B  F007         	goto	u1241
   751  000E92  EF4D  F007         	goto	u1240
   752  000E96                     u1241:
   753  000E96  EF65  F007         	goto	l1912
   754  000E9A                     u1240:
   755  000E9A  0E54               	movlw	84
   756  000E9C  1825               	xorwf	main@Task^0,w,c
   757  000E9E  B4D8               	btfsc	status,2,c
   758  000EA0  EF54  F007         	goto	u1251
   759  000EA4  EF56  F007         	goto	u1250
   760  000EA8                     u1251:
   761  000EA8  EF65  F007         	goto	l1912
   762  000EAC                     u1250:
   763  000EAC  0E53               	movlw	83
   764  000EAE  1825               	xorwf	main@Task^0,w,c
   765  000EB0  B4D8               	btfsc	status,2,c
   766  000EB2  EF5D  F007         	goto	u1261
   767  000EB6  EF5F  F007         	goto	u1260
   768  000EBA                     u1261:
   769  000EBA  EF65  F007         	goto	l1912
   770  000EBE                     u1260:
   771  000EBE                     
   772                           ;SPARC_4585.c: 86:                 ERROR_NO_COMANDO();
   773  000EBE  ECEE  F00C         	call	_ERROR_NO_COMANDO	;wreg free
   774  000EC2                     
   775                           ;SPARC_4585.c: 87:                 LEDS_OFF();
   776  000EC2  EC41  F00D         	call	_LEDS_OFF	;wreg free
   777  000EC6                     
   778                           ;SPARC_4585.c: 88:                 ERROR_LEDS();
   779  000EC6  EC51  F00D         	call	_ERROR_LEDS	;wreg free
   780  000ECA                     l1912:
   781                           
   782                           ;SPARC_4585.c: 90:             if (Task == 72) {
   783  000ECA  0E48               	movlw	72
   784  000ECC  1825               	xorwf	main@Task^0,w,c
   785  000ECE  A4D8               	btfss	status,2,c
   786  000ED0  EF6C  F007         	goto	u1271
   787  000ED4  EF6E  F007         	goto	u1270
   788  000ED8                     u1271:
   789  000ED8  EF99  F007         	goto	l1938
   790  000EDC                     u1270:
   791  000EDC                     
   792                           ;SPARC_4585.c: 91:                 LEDS_OFF();
   793  000EDC  EC41  F00D         	call	_LEDS_OFF	;wreg free
   794  000EE0                     
   795                           ;SPARC_4585.c: 92:                 PROCESO();
   796  000EE0  ECE1  F00C         	call	_PROCESO	;wreg free
   797  000EE4                     
   798                           ;SPARC_4585.c: 93:                 PROCESO_LEDS();
   799  000EE4  EC3D  F00D         	call	_PROCESO_LEDS	;wreg free
   800  000EE8                     
   801                           ;SPARC_4585.c: 94:                 PORTEbits.RE0 = 0;
   802  000EE8  9084               	bcf	132,0,c	;volatile
   803  000EEA                     
   804                           ;SPARC_4585.c: 95:                 PosicionX = MOV_L_PASOS_X(PosicionX, 0);
   805  000EEA  C02E  F00E         	movff	_PosicionX,MOV_L_PASOS_X@posicion
   806  000EEE  C02F  F00F         	movff	_PosicionX+1,MOV_L_PASOS_X@posicion+1
   807  000EF2  0E00               	movlw	0
   808  000EF4  6E11               	movwf	(MOV_L_PASOS_X@coordenada+1)^0,c
   809  000EF6  0E00               	movlw	0
   810  000EF8  6E10               	movwf	MOV_L_PASOS_X@coordenada^0,c
   811  000EFA  ECAF  F00B         	call	_MOV_L_PASOS_X	;wreg free
   812  000EFE  C00E  F02E         	movff	?_MOV_L_PASOS_X,_PosicionX
   813  000F02  C00F  F02F         	movff	?_MOV_L_PASOS_X+1,_PosicionX+1
   814  000F06                     
   815                           ;SPARC_4585.c: 96:                 PosicionY = MOV_L_PASOS_Y(PosicionY, 0);
   816  000F06  C02C  F00E         	movff	_PosicionY,MOV_L_PASOS_Y@posicion
   817  000F0A  C02D  F00F         	movff	_PosicionY+1,MOV_L_PASOS_Y@posicion+1
   818  000F0E  0E00               	movlw	0
   819  000F10  6E11               	movwf	(MOV_L_PASOS_Y@coordenada+1)^0,c
   820  000F12  0E00               	movlw	0
   821  000F14  6E10               	movwf	MOV_L_PASOS_Y@coordenada^0,c
   822  000F16  EC73  F00B         	call	_MOV_L_PASOS_Y	;wreg free
   823  000F1A  C00E  F02C         	movff	?_MOV_L_PASOS_Y,_PosicionY
   824  000F1E  C00F  F02D         	movff	?_MOV_L_PASOS_Y+1,_PosicionY+1
   825  000F22                     
   826                           ;SPARC_4585.c: 97:                 TERMINADO_LEDS();
   827  000F22  EC39  F00D         	call	_TERMINADO_LEDS	;wreg free
   828  000F26                     
   829                           ;SPARC_4585.c: 98:                 TERMINADO();
   830  000F26  ECC7  F00C         	call	_TERMINADO	;wreg free
   831  000F2A                     
   832                           ;SPARC_4585.c: 99:                 TXSTAbits.TXEN = 0;
   833  000F2A  9AAC               	bcf	172,5,c	;volatile
   834  000F2C                     
   835                           ;SPARC_4585.c: 100:                 RCSTAbits.CREN = 0;
   836  000F2C  98AB               	bcf	171,4,c	;volatile
   837  000F2E                     
   838                           ;SPARC_4585.c: 101:                 TXSTAbits.TXEN = 1;
   839  000F2E  8AAC               	bsf	172,5,c	;volatile
   840  000F30                     
   841                           ;SPARC_4585.c: 102:                 RCSTAbits.CREN = 1;
   842  000F30  88AB               	bsf	171,4,c	;volatile
   843  000F32                     l1938:
   844                           
   845                           ;SPARC_4585.c: 104:             if (Task == 71) {
   846  000F32  0E47               	movlw	71
   847  000F34  1825               	xorwf	main@Task^0,w,c
   848  000F36  A4D8               	btfss	status,2,c
   849  000F38  EFA0  F007         	goto	u1281
   850  000F3C  EFA2  F007         	goto	u1280
   851  000F40                     u1281:
   852  000F40  EFAF  F007         	goto	l1950
   853  000F44                     u1280:
   854  000F44                     
   855                           ;SPARC_4585.c: 105:                 LEDS_OFF();
   856  000F44  EC41  F00D         	call	_LEDS_OFF	;wreg free
   857  000F48                     
   858                           ;SPARC_4585.c: 106:                 PORTEbits.RE0 = 0;
   859  000F48  9084               	bcf	132,0,c	;volatile
   860  000F4A                     
   861                           ;SPARC_4585.c: 107:                 TaskReceive = 1;
   862  000F4A  0E01               	movlw	1
   863  000F4C  6E39               	movwf	_TaskReceive^0,c
   864  000F4E                     
   865                           ;SPARC_4585.c: 108:                 XReceive = 0;
   866  000F4E  0E00               	movlw	0
   867  000F50  6E33               	movwf	(_XReceive+1)^0,c
   868  000F52  0E00               	movlw	0
   869  000F54  6E32               	movwf	_XReceive^0,c
   870  000F56                     
   871                           ;SPARC_4585.c: 109:                 YReceive = 0;
   872  000F56  0E00               	movlw	0
   873  000F58  6E31               	movwf	(_YReceive+1)^0,c
   874  000F5A  0E00               	movlw	0
   875  000F5C  6E30               	movwf	_YReceive^0,c
   876  000F5E                     l1950:
   877                           
   878                           ;SPARC_4585.c: 111:             if (Task == 84) {
   879  000F5E  0E54               	movlw	84
   880  000F60  1825               	xorwf	main@Task^0,w,c
   881  000F62  A4D8               	btfss	status,2,c
   882  000F64  EFB6  F007         	goto	u1291
   883  000F68  EFB8  F007         	goto	u1290
   884  000F6C                     u1291:
   885  000F6C  EFDC  F007         	goto	l1980
   886  000F70                     u1290:
   887  000F70                     
   888                           ;SPARC_4585.c: 112:                 LEDS_OFF();
   889  000F70  EC41  F00D         	call	_LEDS_OFF	;wreg free
   890  000F74                     
   891                           ;SPARC_4585.c: 113:                 PROCESO();
   892  000F74  ECE1  F00C         	call	_PROCESO	;wreg free
   893  000F78                     
   894                           ;SPARC_4585.c: 114:                 PROCESO_LEDS();
   895  000F78  EC3D  F00D         	call	_PROCESO_LEDS	;wreg free
   896  000F7C                     
   897                           ;SPARC_4585.c: 115:                 PORTEbits.RE0 = 0;
   898  000F7C  9084               	bcf	132,0,c	;volatile
   899  000F7E                     
   900                           ;SPARC_4585.c: 116:                 _delay((unsigned long)((50)*(4000000/4000.0)));
   901  000F7E  0E41               	movlw	65
   902  000F80  6E15               	movwf	??_main^0,c
   903  000F82  0EEE               	movlw	238
   904  000F84                     u1457:
   905  000F84  2EE8               	decfsz	wreg,f,c
   906  000F86  D7FE               	bra	u1457
   907  000F88  2E15               	decfsz	??_main^0,f,c
   908  000F8A  D7FC               	bra	u1457
   909  000F8C  D000               	nop2	
   910  000F8E                     
   911                           ;SPARC_4585.c: 117:                 PORTEbits.RE0 = 1;
   912  000F8E  8084               	bsf	132,0,c	;volatile
   913  000F90                     
   914                           ;SPARC_4585.c: 118:                 _delay((unsigned long)((500)*(4000000/4000.0)));
   915  000F90  0E03               	movlw	3
   916  000F92  6E16               	movwf	(??_main+1)^0,c
   917  000F94  0E8A               	movlw	138
   918  000F96  6E15               	movwf	??_main^0,c
   919  000F98  0E56               	movlw	86
   920  000F9A                     u1467:
   921  000F9A  2EE8               	decfsz	wreg,f,c
   922  000F9C  D7FE               	bra	u1467
   923  000F9E  2E15               	decfsz	??_main^0,f,c
   924  000FA0  D7FC               	bra	u1467
   925  000FA2  2E16               	decfsz	(??_main+1)^0,f,c
   926  000FA4  D7FA               	bra	u1467
   927  000FA6                     
   928                           ;SPARC_4585.c: 119:                 PORTEbits.RE0 = 0;
   929  000FA6  9084               	bcf	132,0,c	;volatile
   930  000FA8                     
   931                           ;SPARC_4585.c: 120:                 TERMINADO_LEDS();
   932  000FA8  EC39  F00D         	call	_TERMINADO_LEDS	;wreg free
   933  000FAC                     
   934                           ;SPARC_4585.c: 121:                 TERMINADO();
   935  000FAC  ECC7  F00C         	call	_TERMINADO	;wreg free
   936  000FB0                     
   937                           ;SPARC_4585.c: 122:                 TXSTAbits.TXEN = 0;
   938  000FB0  9AAC               	bcf	172,5,c	;volatile
   939  000FB2                     
   940                           ;SPARC_4585.c: 123:                 RCSTAbits.CREN = 0;
   941  000FB2  98AB               	bcf	171,4,c	;volatile
   942  000FB4                     
   943                           ;SPARC_4585.c: 124:                 TXSTAbits.TXEN = 1;
   944  000FB4  8AAC               	bsf	172,5,c	;volatile
   945  000FB6                     
   946                           ;SPARC_4585.c: 125:                 RCSTAbits.CREN = 1;
   947  000FB6  88AB               	bsf	171,4,c	;volatile
   948  000FB8                     l1980:
   949                           
   950                           ;SPARC_4585.c: 127:             if (Task == 83) {
   951  000FB8  0E53               	movlw	83
   952  000FBA  1825               	xorwf	main@Task^0,w,c
   953  000FBC  A4D8               	btfss	status,2,c
   954  000FBE  EFE3  F007         	goto	u1301
   955  000FC2  EFE5  F007         	goto	u1300
   956  000FC6                     u1301:
   957  000FC6  EFF2  F007         	goto	l1992
   958  000FCA                     u1300:
   959  000FCA                     
   960                           ;SPARC_4585.c: 128:                 LEDS_OFF();
   961  000FCA  EC41  F00D         	call	_LEDS_OFF	;wreg free
   962  000FCE                     
   963                           ;SPARC_4585.c: 129:                 PORTEbits.RE0 = 1;
   964  000FCE  8084               	bsf	132,0,c	;volatile
   965  000FD0                     
   966                           ;SPARC_4585.c: 130:                 TaskReceive = 1;
   967  000FD0  0E01               	movlw	1
   968  000FD2  6E39               	movwf	_TaskReceive^0,c
   969  000FD4                     
   970                           ;SPARC_4585.c: 131:                 XReceive = 0;
   971  000FD4  0E00               	movlw	0
   972  000FD6  6E33               	movwf	(_XReceive+1)^0,c
   973  000FD8  0E00               	movlw	0
   974  000FDA  6E32               	movwf	_XReceive^0,c
   975  000FDC                     
   976                           ;SPARC_4585.c: 132:                 YReceive = 0;
   977  000FDC  0E00               	movlw	0
   978  000FDE  6E31               	movwf	(_YReceive+1)^0,c
   979  000FE0  0E00               	movlw	0
   980  000FE2  6E30               	movwf	_YReceive^0,c
   981  000FE4                     l1992:
   982                           
   983                           ;SPARC_4585.c: 81:         while (TaskReceive == 0) {
   984  000FE4  5039               	movf	_TaskReceive^0,w,c
   985  000FE6  B4D8               	btfsc	status,2,c
   986  000FE8  EFF8  F007         	goto	u1311
   987  000FEC  EFFA  F007         	goto	u1310
   988  000FF0                     u1311:
   989  000FF0  EF38  F007         	goto	l1896
   990  000FF4                     u1310:
   991  000FF4  EF24  F009         	goto	l2072
   992  000FF8                     l1994:
   993                           
   994                           ;SPARC_4585.c: 139:             unsigned char *Ptrcoordenadas = (unsigned char*) &Instru
      +                          ccion.coordenadas[0];
   995  000FF8  0E26               	movlw	low main@Instruccion
   996  000FFA  6E23               	movwf	main@Ptrcoordenadas^0,c
   997  000FFC  0E00               	movlw	high main@Instruccion
   998  000FFE  6E24               	movwf	(main@Ptrcoordenadas+1)^0,c
   999  001000                     
  1000                           ;SPARC_4585.c: 141:             RECEIVE_STRING(Ptrcoordenadas, 6);
  1001  001000  C023  F00E         	movff	main@Ptrcoordenadas,RECEIVE_STRING@guardarscan
  1002  001004  C024  F00F         	movff	main@Ptrcoordenadas+1,RECEIVE_STRING@guardarscan+1
  1003  001008  0E06               	movlw	6
  1004  00100A  6E10               	movwf	RECEIVE_STRING@numcaracteres^0,c
  1005  00100C  EC61  F00C         	call	_RECEIVE_STRING	;wreg free
  1006  001010                     
  1007                           ;SPARC_4585.c: 143:             SEND_STRING(Ptrcoordenadas);
  1008  001010  C023  F00F         	movff	main@Ptrcoordenadas,SEND_STRING@PointString
  1009  001014  C024  F010         	movff	main@Ptrcoordenadas+1,SEND_STRING@PointString+1
  1010  001018  EC19  F00A         	call	_SEND_STRING	;wreg free
  1011  00101C                     
  1012                           ;SPARC_4585.c: 145:             unsigned short Centenasx = (Instruccion.coordenada.x[0] 
      +                          - 48) * 100;
  1013  00101C  0ED0               	movlw	208
  1014  00101E  2426               	addwf	main@Instruccion^0,w,c
  1015  001020  6E0E               	movwf	___wmul@multiplier^0,c
  1016  001022  6A0F               	clrf	(___wmul@multiplier+1)^0,c
  1017  001024  0EFF               	movlw	255
  1018  001026  220F               	addwfc	(___wmul@multiplier+1)^0,f,c
  1019  001028  0E00               	movlw	0
  1020  00102A  6E11               	movwf	(___wmul@multiplicand+1)^0,c
  1021  00102C  0E64               	movlw	100
  1022  00102E  6E10               	movwf	___wmul@multiplicand^0,c
  1023  001030  EC79  F00C         	call	___wmul	;wreg free
  1024  001034  C00E  F017         	movff	?___wmul,main@Centenasx
  1025  001038  C00F  F018         	movff	?___wmul+1,main@Centenasx+1
  1026  00103C                     
  1027                           ;SPARC_4585.c: 146:             unsigned short Decenasx = (Instruccion.coordenada.x[1] -
      +                           48) * 10;
  1028  00103C  0ED0               	movlw	208
  1029  00103E  2427               	addwf	(main@Instruccion+1)^0,w,c
  1030  001040  6E0E               	movwf	___wmul@multiplier^0,c
  1031  001042  6A0F               	clrf	(___wmul@multiplier+1)^0,c
  1032  001044  0EFF               	movlw	255
  1033  001046  220F               	addwfc	(___wmul@multiplier+1)^0,f,c
  1034  001048  0E00               	movlw	0
  1035  00104A  6E11               	movwf	(___wmul@multiplicand+1)^0,c
  1036  00104C  0E0A               	movlw	10
  1037  00104E  6E10               	movwf	___wmul@multiplicand^0,c
  1038  001050  EC79  F00C         	call	___wmul	;wreg free
  1039  001054  C00E  F019         	movff	?___wmul,main@Decenasx
  1040  001058  C00F  F01A         	movff	?___wmul+1,main@Decenasx+1
  1041  00105C                     
  1042                           ;SPARC_4585.c: 147:             unsigned short Unidadx = Instruccion.coordenada.x[2] - 4
      +                          8;
  1043  00105C  0ED0               	movlw	208
  1044  00105E  2428               	addwf	(main@Instruccion+2)^0,w,c
  1045  001060  6E1B               	movwf	main@Unidadx^0,c
  1046  001062  6A1C               	clrf	(main@Unidadx+1)^0,c
  1047  001064  0EFF               	movlw	255
  1048  001066  221C               	addwfc	(main@Unidadx+1)^0,f,c
  1049  001068                     
  1050                           ;SPARC_4585.c: 149:             X = Centenasx + Decenasx + Unidadx;
  1051  001068  5019               	movf	main@Decenasx^0,w,c
  1052  00106A  2417               	addwf	main@Centenasx^0,w,c
  1053  00106C  6E15               	movwf	??_main^0,c
  1054  00106E  501A               	movf	(main@Decenasx+1)^0,w,c
  1055  001070  2018               	addwfc	(main@Centenasx+1)^0,w,c
  1056  001072  6E16               	movwf	(??_main+1)^0,c
  1057  001074  501B               	movf	main@Unidadx^0,w,c
  1058  001076  2415               	addwf	??_main^0,w,c
  1059  001078  6E36               	movwf	_X^0,c
  1060  00107A  501C               	movf	(main@Unidadx+1)^0,w,c
  1061  00107C  2016               	addwfc	(??_main+1)^0,w,c
  1062  00107E  6E37               	movwf	(_X+1)^0,c
  1063  001080                     
  1064                           ;SPARC_4585.c: 151:             unsigned short Centenasy = (Instruccion.coordenada.y[0] 
      +                          - 48) * 100;
  1065  001080  0ED0               	movlw	208
  1066  001082  2429               	addwf	(main@Instruccion+3)^0,w,c
  1067  001084  6E0E               	movwf	___wmul@multiplier^0,c
  1068  001086  6A0F               	clrf	(___wmul@multiplier+1)^0,c
  1069  001088  0EFF               	movlw	255
  1070  00108A  220F               	addwfc	(___wmul@multiplier+1)^0,f,c
  1071  00108C  0E00               	movlw	0
  1072  00108E  6E11               	movwf	(___wmul@multiplicand+1)^0,c
  1073  001090  0E64               	movlw	100
  1074  001092  6E10               	movwf	___wmul@multiplicand^0,c
  1075  001094  EC79  F00C         	call	___wmul	;wreg free
  1076  001098  C00E  F01D         	movff	?___wmul,main@Centenasy
  1077  00109C  C00F  F01E         	movff	?___wmul+1,main@Centenasy+1
  1078  0010A0                     
  1079                           ;SPARC_4585.c: 152:             unsigned short Decenasy = (Instruccion.coordenada.y[1] -
      +                           48) * 10;
  1080  0010A0  0ED0               	movlw	208
  1081  0010A2  242A               	addwf	(main@Instruccion+4)^0,w,c
  1082  0010A4  6E0E               	movwf	___wmul@multiplier^0,c
  1083  0010A6  6A0F               	clrf	(___wmul@multiplier+1)^0,c
  1084  0010A8  0EFF               	movlw	255
  1085  0010AA  220F               	addwfc	(___wmul@multiplier+1)^0,f,c
  1086  0010AC  0E00               	movlw	0
  1087  0010AE  6E11               	movwf	(___wmul@multiplicand+1)^0,c
  1088  0010B0  0E0A               	movlw	10
  1089  0010B2  6E10               	movwf	___wmul@multiplicand^0,c
  1090  0010B4  EC79  F00C         	call	___wmul	;wreg free
  1091  0010B8  C00E  F01F         	movff	?___wmul,main@Decenasy
  1092  0010BC  C00F  F020         	movff	?___wmul+1,main@Decenasy+1
  1093  0010C0                     
  1094                           ;SPARC_4585.c: 153:             unsigned short Unidady = Instruccion.coordenada.y[2] - 4
      +                          8;
  1095  0010C0  0ED0               	movlw	208
  1096  0010C2  242B               	addwf	(main@Instruccion+5)^0,w,c
  1097  0010C4  6E21               	movwf	main@Unidady^0,c
  1098  0010C6  6A22               	clrf	(main@Unidady+1)^0,c
  1099  0010C8  0EFF               	movlw	255
  1100  0010CA  2222               	addwfc	(main@Unidady+1)^0,f,c
  1101  0010CC                     
  1102                           ;SPARC_4585.c: 155:             Y = Centenasy + Decenasy + Unidady;
  1103  0010CC  501F               	movf	main@Decenasy^0,w,c
  1104  0010CE  241D               	addwf	main@Centenasy^0,w,c
  1105  0010D0  6E15               	movwf	??_main^0,c
  1106  0010D2  5020               	movf	(main@Decenasy+1)^0,w,c
  1107  0010D4  201E               	addwfc	(main@Centenasy+1)^0,w,c
  1108  0010D6  6E16               	movwf	(??_main+1)^0,c
  1109  0010D8  5021               	movf	main@Unidady^0,w,c
  1110  0010DA  2415               	addwf	??_main^0,w,c
  1111  0010DC  6E34               	movwf	_Y^0,c
  1112  0010DE  5022               	movf	(main@Unidady+1)^0,w,c
  1113  0010E0  2016               	addwfc	(??_main+1)^0,w,c
  1114  0010E2  6E35               	movwf	(_Y+1)^0,c
  1115  0010E4                     
  1116                           ;SPARC_4585.c: 157:             if (X > 300 || Y > 300) {
  1117  0010E4  0E2D               	movlw	45
  1118  0010E6  5C36               	subwf	_X^0,w,c
  1119  0010E8  0E01               	movlw	1
  1120  0010EA  5837               	subwfb	(_X+1)^0,w,c
  1121  0010EC  B0D8               	btfsc	status,0,c
  1122  0010EE  EF7B  F008         	goto	u1321
  1123  0010F2  EF7D  F008         	goto	u1320
  1124  0010F6                     u1321:
  1125  0010F6  EF88  F008         	goto	l2020
  1126  0010FA                     u1320:
  1127  0010FA  0E2D               	movlw	45
  1128  0010FC  5C34               	subwf	_Y^0,w,c
  1129  0010FE  0E01               	movlw	1
  1130  001100  5835               	subwfb	(_Y+1)^0,w,c
  1131  001102  A0D8               	btfss	status,0,c
  1132  001104  EF86  F008         	goto	u1331
  1133  001108  EF88  F008         	goto	u1330
  1134  00110C                     u1331:
  1135  00110C  EF8C  F008         	goto	l2024
  1136  001110                     u1330:
  1137  001110                     l2020:
  1138                           
  1139                           ;SPARC_4585.c: 158:                 ERROR_FUERA_LIMITE();
  1140  001110  ECFB  F00C         	call	_ERROR_FUERA_LIMITE	;wreg free
  1141  001114                     
  1142                           ;SPARC_4585.c: 159:                 ERROR_LEDS();
  1143  001114  EC51  F00D         	call	_ERROR_LEDS	;wreg free
  1144  001118                     l2024:
  1145                           
  1146                           ;SPARC_4585.c: 161:             if (X < 301 && Y < 301) {
  1147  001118  0E2D               	movlw	45
  1148  00111A  5C36               	subwf	_X^0,w,c
  1149  00111C  0E01               	movlw	1
  1150  00111E  5837               	subwfb	(_X+1)^0,w,c
  1151  001120  B0D8               	btfsc	status,0,c
  1152  001122  EF95  F008         	goto	u1341
  1153  001126  EF97  F008         	goto	u1340
  1154  00112A                     u1341:
  1155  00112A  EF24  F009         	goto	l2072
  1156  00112E                     u1340:
  1157  00112E  0E2D               	movlw	45
  1158  001130  5C34               	subwf	_Y^0,w,c
  1159  001132  0E01               	movlw	1
  1160  001134  5835               	subwfb	(_Y+1)^0,w,c
  1161  001136  B0D8               	btfsc	status,0,c
  1162  001138  EFA0  F008         	goto	u1351
  1163  00113C  EFA2  F008         	goto	u1350
  1164  001140                     u1351:
  1165  001140  EF24  F009         	goto	l2072
  1166  001144                     u1350:
  1167  001144                     
  1168                           ;SPARC_4585.c: 162:                 LEDS_OFF();
  1169  001144  EC41  F00D         	call	_LEDS_OFF	;wreg free
  1170  001148                     
  1171                           ;SPARC_4585.c: 163:                 PROCESO();
  1172  001148  ECE1  F00C         	call	_PROCESO	;wreg free
  1173  00114C                     
  1174                           ;SPARC_4585.c: 164:                 PROCESO_LEDS();
  1175  00114C  EC3D  F00D         	call	_PROCESO_LEDS	;wreg free
  1176  001150                     
  1177                           ;SPARC_4585.c: 165:                 if (PosicionX < X) {
  1178  001150  5036               	movf	_X^0,w,c
  1179  001152  5C2E               	subwf	_PosicionX^0,w,c
  1180  001154  5037               	movf	(_X+1)^0,w,c
  1181  001156  582F               	subwfb	(_PosicionX+1)^0,w,c
  1182  001158  B0D8               	btfsc	status,0,c
  1183  00115A  EFB1  F008         	goto	u1361
  1184  00115E  EFB3  F008         	goto	u1360
  1185  001162                     u1361:
  1186  001162  EFC3  F008         	goto	l2040
  1187  001166                     u1360:
  1188  001166                     
  1189                           ;SPARC_4585.c: 166:                     TXSTAbits.TXEN = 0;
  1190  001166  9AAC               	bcf	172,5,c	;volatile
  1191                           
  1192                           ;SPARC_4585.c: 167:                     RCSTAbits.CREN = 0;
  1193  001168  98AB               	bcf	171,4,c	;volatile
  1194  00116A                     
  1195                           ;SPARC_4585.c: 168:                     PosicionX = MOV_R_PASOS_X(PosicionX, X);
  1196  00116A  C02E  F00E         	movff	_PosicionX,MOV_R_PASOS_X@posicion
  1197  00116E  C02F  F00F         	movff	_PosicionX+1,MOV_R_PASOS_X@posicion+1
  1198  001172  C036  F010         	movff	_X,MOV_R_PASOS_X@coordenada
  1199  001176  C037  F011         	movff	_X+1,MOV_R_PASOS_X@coordenada+1
  1200  00117A  EC26  F00C         	call	_MOV_R_PASOS_X	;wreg free
  1201  00117E  C00E  F02E         	movff	?_MOV_R_PASOS_X,_PosicionX
  1202  001182  C00F  F02F         	movff	?_MOV_R_PASOS_X+1,_PosicionX+1
  1203  001186                     l2040:
  1204                           
  1205                           ;SPARC_4585.c: 170:                 if (PosicionX > X) {
  1206  001186  502E               	movf	_PosicionX^0,w,c
  1207  001188  5C36               	subwf	_X^0,w,c
  1208  00118A  502F               	movf	(_PosicionX+1)^0,w,c
  1209  00118C  5837               	subwfb	(_X+1)^0,w,c
  1210  00118E  B0D8               	btfsc	status,0,c
  1211  001190  EFCC  F008         	goto	u1371
  1212  001194  EFCE  F008         	goto	u1370
  1213  001198                     u1371:
  1214  001198  EFDE  F008         	goto	l2046
  1215  00119C                     u1370:
  1216  00119C                     
  1217                           ;SPARC_4585.c: 171:                     TXSTAbits.TXEN = 0;
  1218  00119C  9AAC               	bcf	172,5,c	;volatile
  1219                           
  1220                           ;SPARC_4585.c: 172:                     RCSTAbits.CREN = 0;
  1221  00119E  98AB               	bcf	171,4,c	;volatile
  1222  0011A0                     
  1223                           ;SPARC_4585.c: 173:                     PosicionX = MOV_L_PASOS_X(PosicionX, X);
  1224  0011A0  C02E  F00E         	movff	_PosicionX,MOV_L_PASOS_X@posicion
  1225  0011A4  C02F  F00F         	movff	_PosicionX+1,MOV_L_PASOS_X@posicion+1
  1226  0011A8  C036  F010         	movff	_X,MOV_L_PASOS_X@coordenada
  1227  0011AC  C037  F011         	movff	_X+1,MOV_L_PASOS_X@coordenada+1
  1228  0011B0  ECAF  F00B         	call	_MOV_L_PASOS_X	;wreg free
  1229  0011B4  C00E  F02E         	movff	?_MOV_L_PASOS_X,_PosicionX
  1230  0011B8  C00F  F02F         	movff	?_MOV_L_PASOS_X+1,_PosicionX+1
  1231  0011BC                     l2046:
  1232                           
  1233                           ;SPARC_4585.c: 175:                 if (PosicionY < Y) {
  1234  0011BC  5034               	movf	_Y^0,w,c
  1235  0011BE  5C2C               	subwf	_PosicionY^0,w,c
  1236  0011C0  5035               	movf	(_Y+1)^0,w,c
  1237  0011C2  582D               	subwfb	(_PosicionY+1)^0,w,c
  1238  0011C4  B0D8               	btfsc	status,0,c
  1239  0011C6  EFE7  F008         	goto	u1381
  1240  0011CA  EFE9  F008         	goto	u1380
  1241  0011CE                     u1381:
  1242  0011CE  EFF9  F008         	goto	l2052
  1243  0011D2                     u1380:
  1244  0011D2                     
  1245                           ;SPARC_4585.c: 176:                     TXSTAbits.TXEN = 0;
  1246  0011D2  9AAC               	bcf	172,5,c	;volatile
  1247                           
  1248                           ;SPARC_4585.c: 177:                     RCSTAbits.CREN = 0;
  1249  0011D4  98AB               	bcf	171,4,c	;volatile
  1250  0011D6                     
  1251                           ;SPARC_4585.c: 178:                     PosicionY = MOV_R_PASOS_Y(PosicionY, Y);
  1252  0011D6  C02C  F00E         	movff	_PosicionY,MOV_R_PASOS_Y@posicion
  1253  0011DA  C02D  F00F         	movff	_PosicionY+1,MOV_R_PASOS_Y@posicion+1
  1254  0011DE  C034  F010         	movff	_Y,MOV_R_PASOS_Y@coordenada
  1255  0011E2  C035  F011         	movff	_Y+1,MOV_R_PASOS_Y@coordenada+1
  1256  0011E6  ECEB  F00B         	call	_MOV_R_PASOS_Y	;wreg free
  1257  0011EA  C00E  F02C         	movff	?_MOV_R_PASOS_Y,_PosicionY
  1258  0011EE  C00F  F02D         	movff	?_MOV_R_PASOS_Y+1,_PosicionY+1
  1259  0011F2                     l2052:
  1260                           
  1261                           ;SPARC_4585.c: 180:                 if (PosicionY > Y) {
  1262  0011F2  502C               	movf	_PosicionY^0,w,c
  1263  0011F4  5C34               	subwf	_Y^0,w,c
  1264  0011F6  502D               	movf	(_PosicionY+1)^0,w,c
  1265  0011F8  5835               	subwfb	(_Y+1)^0,w,c
  1266  0011FA  B0D8               	btfsc	status,0,c
  1267  0011FC  EF02  F009         	goto	u1391
  1268  001200  EF04  F009         	goto	u1390
  1269  001204                     u1391:
  1270  001204  EF14  F009         	goto	l2058
  1271  001208                     u1390:
  1272  001208                     
  1273                           ;SPARC_4585.c: 181:                     TXSTAbits.TXEN = 0;
  1274  001208  9AAC               	bcf	172,5,c	;volatile
  1275                           
  1276                           ;SPARC_4585.c: 182:                     RCSTAbits.CREN = 0;
  1277  00120A  98AB               	bcf	171,4,c	;volatile
  1278  00120C                     
  1279                           ;SPARC_4585.c: 183:                     PosicionY = MOV_L_PASOS_Y(PosicionY, Y);
  1280  00120C  C02C  F00E         	movff	_PosicionY,MOV_L_PASOS_Y@posicion
  1281  001210  C02D  F00F         	movff	_PosicionY+1,MOV_L_PASOS_Y@posicion+1
  1282  001214  C034  F010         	movff	_Y,MOV_L_PASOS_Y@coordenada
  1283  001218  C035  F011         	movff	_Y+1,MOV_L_PASOS_Y@coordenada+1
  1284  00121C  EC73  F00B         	call	_MOV_L_PASOS_Y	;wreg free
  1285  001220  C00E  F02C         	movff	?_MOV_L_PASOS_Y,_PosicionY
  1286  001224  C00F  F02D         	movff	?_MOV_L_PASOS_Y+1,_PosicionY+1
  1287  001228                     l2058:
  1288                           
  1289                           ;SPARC_4585.c: 185:                 TXSTAbits.TXEN = 1;
  1290  001228  8AAC               	bsf	172,5,c	;volatile
  1291  00122A                     
  1292                           ;SPARC_4585.c: 186:                 RCSTAbits.CREN = 1;
  1293  00122A  88AB               	bsf	171,4,c	;volatile
  1294  00122C                     
  1295                           ;SPARC_4585.c: 187:                 TERMINADO_LEDS();
  1296  00122C  EC39  F00D         	call	_TERMINADO_LEDS	;wreg free
  1297  001230                     
  1298                           ;SPARC_4585.c: 188:                 TERMINADO();
  1299  001230  ECC7  F00C         	call	_TERMINADO	;wreg free
  1300  001234                     
  1301                           ;SPARC_4585.c: 189:                 TaskReceive = 0;
  1302  001234  0E00               	movlw	0
  1303  001236  6E39               	movwf	_TaskReceive^0,c
  1304  001238                     
  1305                           ;SPARC_4585.c: 190:                 XReceive = 1;
  1306  001238  0E00               	movlw	0
  1307  00123A  6E33               	movwf	(_XReceive+1)^0,c
  1308  00123C  0E01               	movlw	1
  1309  00123E  6E32               	movwf	_XReceive^0,c
  1310  001240                     
  1311                           ;SPARC_4585.c: 191:                 YReceive = 1;
  1312  001240  0E00               	movlw	0
  1313  001242  6E31               	movwf	(_YReceive+1)^0,c
  1314  001244  0E01               	movlw	1
  1315  001246  6E30               	movwf	_YReceive^0,c
  1316  001248                     l2072:
  1317                           
  1318                           ;SPARC_4585.c: 137:         while (XReceive == 0 && YReceive == 0) {
  1319  001248  5032               	movf	_XReceive^0,w,c
  1320  00124A  1033               	iorwf	(_XReceive+1)^0,w,c
  1321  00124C  A4D8               	btfss	status,2,c
  1322  00124E  EF2B  F009         	goto	u1401
  1323  001252  EF2D  F009         	goto	u1400
  1324  001256                     u1401:
  1325  001256  EFF2  F007         	goto	l1992
  1326  00125A                     u1400:
  1327  00125A  5030               	movf	_YReceive^0,w,c
  1328  00125C  1031               	iorwf	(_YReceive+1)^0,w,c
  1329  00125E  B4D8               	btfsc	status,2,c
  1330  001260  EF34  F009         	goto	u1411
  1331  001264  EF36  F009         	goto	u1410
  1332  001268                     u1411:
  1333  001268  EFFC  F007         	goto	l1994
  1334  00126C                     u1410:
  1335  00126C  EFF2  F007         	goto	l1992
  1336  001270  EF07  F000         	goto	start
  1337  001274                     __end_of_main:
  1338                           	opt callstack 0
  1339                           
  1340 ;; *************** function ___wmul *****************
  1341 ;; Defined at:
  1342 ;;		line 15 in file "C:\Program Files (x86)\Microchip\xc8\v2.10\pic\sources\c99\common\Umul16.c"
  1343 ;; Parameters:    Size  Location     Type
  1344 ;;  multiplier      2   13[COMRAM] unsigned int 
  1345 ;;  multiplicand    2   15[COMRAM] unsigned int 
  1346 ;; Auto vars:     Size  Location     Type
  1347 ;;  product         2   17[COMRAM] unsigned int 
  1348 ;; Return value:  Size  Location     Type
  1349 ;;                  2   13[COMRAM] unsigned int 
  1350 ;; Registers used:
  1351 ;;		wreg, status,2, status,0, prodl, prodh
  1352 ;; Tracked objects:
  1353 ;;		On entry : 0/0
  1354 ;;		On exit  : 0/0
  1355 ;;		Unchanged: 0/0
  1356 ;; Data sizes:     COMRAM   BANK0   BANK1   BANK2   BANK3   BANK4   BANK5   BANK6   BANK7   BANK8   BANK9  BANK10  BANK1
      +1  BANK12
  1357 ;;      Params:         4       0       0       0       0       0       0       0       0       0       0       0       
      +0       0
  1358 ;;      Locals:         2       0       0       0       0       0       0       0       0       0       0       0       
      +0       0
  1359 ;;      Temps:          0       0       0       0       0       0       0       0       0       0       0       0       
      +0       0
  1360 ;;      Totals:         6       0       0       0       0       0       0       0       0       0       0       0       
      +0       0
  1361 ;;Total ram usage:        6 bytes
  1362 ;; Hardware stack levels used:    1
  1363 ;; Hardware stack levels required when called:    3
  1364 ;; This function calls:
  1365 ;;		Nothing
  1366 ;; This function is called by:
  1367 ;;		_main
  1368 ;; This function uses a non-reentrant model
  1369 ;;
  1370                           
  1371                           	psect	text1
  1372  0018F2                     __ptext1:
  1373                           	opt callstack 0
  1374  0018F2                     ___wmul:
  1375                           	opt callstack 27
  1376  0018F2  500E               	movf	___wmul@multiplier^0,w,c
  1377  0018F4  0210               	mulwf	___wmul@multiplicand^0,c
  1378  0018F6  CFF3 F012          	movff	prodl,___wmul@product
  1379  0018FA  CFF4 F013          	movff	prodh,___wmul@product+1
  1380  0018FE  500E               	movf	___wmul@multiplier^0,w,c
  1381  001900  0211               	mulwf	(___wmul@multiplicand+1)^0,c
  1382  001902  50F3               	movf	243,w,c
  1383  001904  2613               	addwf	(___wmul@product+1)^0,f,c
  1384  001906  500F               	movf	(___wmul@multiplier+1)^0,w,c
  1385  001908  0210               	mulwf	___wmul@multiplicand^0,c
  1386  00190A  50F3               	movf	243,w,c
  1387  00190C  2613               	addwf	(___wmul@product+1)^0,f,c
  1388  00190E  C012  F00E         	movff	___wmul@product,?___wmul
  1389  001912  C013  F00F         	movff	___wmul@product+1,?___wmul+1
  1390  001916  0012               	return		;funcret
  1391  001918                     __end_of___wmul:
  1392                           	opt callstack 0
  1393                           
  1394 ;; *************** function _UP_PLATFORM *****************
  1395 ;; Defined at:
  1396 ;;		line 12 in file "BOTONES.c"
  1397 ;; Parameters:    Size  Location     Type
  1398 ;;		None
  1399 ;; Auto vars:     Size  Location     Type
  1400 ;;		None
  1401 ;; Return value:  Size  Location     Type
  1402 ;;                  1    wreg      void 
  1403 ;; Registers used:
  1404 ;;		cstack
  1405 ;; Tracked objects:
  1406 ;;		On entry : 0/0
  1407 ;;		On exit  : 0/0
  1408 ;;		Unchanged: 0/0
  1409 ;; Data sizes:     COMRAM   BANK0   BANK1   BANK2   BANK3   BANK4   BANK5   BANK6   BANK7   BANK8   BANK9  BANK10  BANK1
      +1  BANK12
  1410 ;;      Params:         0       0       0       0       0       0       0       0       0       0       0       0       
      +0       0
  1411 ;;      Locals:         0       0       0       0       0       0       0       0       0       0       0       0       
      +0       0
  1412 ;;      Temps:          0       0       0       0       0       0       0       0       0       0       0       0       
      +0       0
  1413 ;;      Totals:         0       0       0       0       0       0       0       0       0       0       0       0       
      +0       0
  1414 ;;Total ram usage:        0 bytes
  1415 ;; Hardware stack levels used:    1
  1416 ;; Hardware stack levels required when called:    4
  1417 ;; This function calls:
  1418 ;;		_MOV_R_DC
  1419 ;;		_MOV_STOP_DC
  1420 ;; This function is called by:
  1421 ;;		_main
  1422 ;; This function uses a non-reentrant model
  1423 ;;
  1424                           
  1425                           	psect	text2
  1426  00193C                     __ptext2:
  1427                           	opt callstack 0
  1428  00193C                     _UP_PLATFORM:
  1429                           	opt callstack 26
  1430  00193C                     
  1431                           ;BOTONES.c: 13:     while (PORTCbits.RC4 == 1) {
  1432  00193C  EFA2  F00C         	goto	l1122
  1433  001940                     l1120:
  1434                           
  1435                           ;BOTONES.c: 14:         MOV_R_DC();
  1436  001940  EC35  F00D         	call	_MOV_R_DC	;wreg free
  1437  001944                     l1122:
  1438                           
  1439                           ;BOTONES.c: 13:     while (PORTCbits.RC4 == 1) {
  1440  001944  B882               	btfsc	130,4,c	;volatile
  1441  001946  EFA7  F00C         	goto	u101
  1442  00194A  EFA9  F00C         	goto	u100
  1443  00194E                     u101:
  1444  00194E  EFA0  F00C         	goto	l1120
  1445  001952                     u100:
  1446  001952                     
  1447                           ;BOTONES.c: 16:     MOV_STOP_DC();
  1448  001952  EC55  F00D         	call	_MOV_STOP_DC	;wreg free
  1449  001956  0012               	return		;funcret
  1450  001958                     __end_of_UP_PLATFORM:
  1451                           	opt callstack 0
  1452                           
  1453 ;; *************** function _MOV_R_DC *****************
  1454 ;; Defined at:
  1455 ;;		line 11 in file "MOTORES_DC.c"
  1456 ;; Parameters:    Size  Location     Type
  1457 ;;		None
  1458 ;; Auto vars:     Size  Location     Type
  1459 ;;		None
  1460 ;; Return value:  Size  Location     Type
  1461 ;;                  1    wreg      void 
  1462 ;; Registers used:
  1463 ;;		None
  1464 ;; Tracked objects:
  1465 ;;		On entry : 0/0
  1466 ;;		On exit  : 0/0
  1467 ;;		Unchanged: 0/0
  1468 ;; Data sizes:     COMRAM   BANK0   BANK1   BANK2   BANK3   BANK4   BANK5   BANK6   BANK7   BANK8   BANK9  BANK10  BANK1
      +1  BANK12
  1469 ;;      Params:         0       0       0       0       0       0       0       0       0       0       0       0       
      +0       0
  1470 ;;      Locals:         0       0       0       0       0       0       0       0       0       0       0       0       
      +0       0
  1471 ;;      Temps:          0       0       0       0       0       0       0       0       0       0       0       0       
      +0       0
  1472 ;;      Totals:         0       0       0       0       0       0       0       0       0       0       0       0       
      +0       0
  1473 ;;Total ram usage:        0 bytes
  1474 ;; Hardware stack levels used:    1
  1475 ;; Hardware stack levels required when called:    3
  1476 ;; This function calls:
  1477 ;;		Nothing
  1478 ;; This function is called by:
  1479 ;;		_UP_PLATFORM
  1480 ;; This function uses a non-reentrant model
  1481 ;;
  1482                           
  1483                           	psect	text3
  1484  001A6A                     __ptext3:
  1485                           	opt callstack 0
  1486  001A6A                     _MOV_R_DC:
  1487                           	opt callstack 26
  1488  001A6A  888C               	bsf	140,4,c	;volatile
  1489  001A6C  8A8C               	bsf	140,5,c	;volatile
  1490  001A6E  9C8C               	bcf	140,6,c	;volatile
  1491  001A70  0012               	return		;funcret
  1492  001A72                     __end_of_MOV_R_DC:
  1493                           	opt callstack 0
  1494                           
  1495 ;; *************** function _TERMINADO_LEDS *****************
  1496 ;; Defined at:
  1497 ;;		line 29 in file "LEDS.c"
  1498 ;; Parameters:    Size  Location     Type
  1499 ;;		None
  1500 ;; Auto vars:     Size  Location     Type
  1501 ;;		None
  1502 ;; Return value:  Size  Location     Type
  1503 ;;                  1    wreg      void 
  1504 ;; Registers used:
  1505 ;;		None
  1506 ;; Tracked objects:
  1507 ;;		On entry : 0/0
  1508 ;;		On exit  : 0/0
  1509 ;;		Unchanged: 0/0
  1510 ;; Data sizes:     COMRAM   BANK0   BANK1   BANK2   BANK3   BANK4   BANK5   BANK6   BANK7   BANK8   BANK9  BANK10  BANK1
      +1  BANK12
  1511 ;;      Params:         0       0       0       0       0       0       0       0       0       0       0       0       
      +0       0
  1512 ;;      Locals:         0       0       0       0       0       0       0       0       0       0       0       0       
      +0       0
  1513 ;;      Temps:          0       0       0       0       0       0       0       0       0       0       0       0       
      +0       0
  1514 ;;      Totals:         0       0       0       0       0       0       0       0       0       0       0       0       
      +0       0
  1515 ;;Total ram usage:        0 bytes
  1516 ;; Hardware stack levels used:    1
  1517 ;; Hardware stack levels required when called:    3
  1518 ;; This function calls:
  1519 ;;		Nothing
  1520 ;; This function is called by:
  1521 ;;		_main
  1522 ;; This function uses a non-reentrant model
  1523 ;;
  1524                           
  1525                           	psect	text4
  1526  001A72                     __ptext4:
  1527                           	opt callstack 0
  1528  001A72                     _TERMINADO_LEDS:
  1529                           	opt callstack 27
  1530  001A72  9A8A               	bcf	138,5,c	;volatile
  1531  001A74  8C8A               	bsf	138,6,c	;volatile
  1532  001A76  9E8A               	bcf	138,7,c	;volatile
  1533  001A78  0012               	return		;funcret
  1534  001A7A                     __end_of_TERMINADO_LEDS:
  1535                           	opt callstack 0
  1536                           
  1537 ;; *************** function _TERMINADO *****************
  1538 ;; Defined at:
  1539 ;;		line 18 in file "MENSAJES.c"
  1540 ;; Parameters:    Size  Location     Type
  1541 ;;		None
  1542 ;; Auto vars:     Size  Location     Type
  1543 ;;		None
  1544 ;; Return value:  Size  Location     Type
  1545 ;;                  1    wreg      void 
  1546 ;; Registers used:
  1547 ;;		wreg, fsr0l, fsr0h, status,2, status,0, tblptrl, tblptrh, tblptru, cstack
  1548 ;; Tracked objects:
  1549 ;;		On entry : 0/0
  1550 ;;		On exit  : 0/0
  1551 ;;		Unchanged: 0/0
  1552 ;; Data sizes:     COMRAM   BANK0   BANK1   BANK2   BANK3   BANK4   BANK5   BANK6   BANK7   BANK8   BANK9  BANK10  BANK1
      +1  BANK12
  1553 ;;      Params:         0       0       0       0       0       0       0       0       0       0       0       0       
      +0       0
  1554 ;;      Locals:         0       0       0       0       0       0       0       0       0       0       0       0       
      +0       0
  1555 ;;      Temps:          0       0       0       0       0       0       0       0       0       0       0       0       
      +0       0
  1556 ;;      Totals:         0       0       0       0       0       0       0       0       0       0       0       0       
      +0       0
  1557 ;;Total ram usage:        0 bytes
  1558 ;; Hardware stack levels used:    1
  1559 ;; Hardware stack levels required when called:    5
  1560 ;; This function calls:
  1561 ;;		_SEND_STRING
  1562 ;;		_SEND_UART
  1563 ;; This function is called by:
  1564 ;;		_main
  1565 ;; This function uses a non-reentrant model
  1566 ;;
  1567                           
  1568                           	psect	text5
  1569  00198E                     __ptext5:
  1570                           	opt callstack 0
  1571  00198E                     _TERMINADO:
  1572                           	opt callstack 25
  1573  00198E                     
  1574                           ;MENSAJES.c: 19:     SEND_UART(10);
  1575  00198E  0E0A               	movlw	10
  1576  001990  EC08  F00D         	call	_SEND_UART
  1577  001994                     
  1578                           ;MENSAJES.c: 20:     SEND_STRING("Proceso completado");
  1579  001994  0E34               	movlw	low STR_7
  1580  001996  6E0F               	movwf	SEND_STRING@PointString^0,c
  1581  001998  0E0D               	movlw	high STR_7
  1582  00199A  6E10               	movwf	(SEND_STRING@PointString+1)^0,c
  1583  00199C  EC19  F00A         	call	_SEND_STRING	;wreg free
  1584  0019A0                     
  1585                           ;MENSAJES.c: 21:     SEND_UART(10);
  1586  0019A0  0E0A               	movlw	10
  1587  0019A2  EC08  F00D         	call	_SEND_UART
  1588  0019A6  0012               	return		;funcret
  1589  0019A8                     __end_of_TERMINADO:
  1590                           	opt callstack 0
  1591                           
  1592 ;; *************** function _RECEIVE_STRING *****************
  1593 ;; Defined at:
  1594 ;;		line 15 in file "SERIAL.c"
  1595 ;; Parameters:    Size  Location     Type
  1596 ;;  guardarscan     2   13[COMRAM] PTR unsigned char 
  1597 ;;		 -> main@Instruccion(6), 
  1598 ;;  numcaractere    1   15[COMRAM] unsigned char 
  1599 ;; Auto vars:     Size  Location     Type
  1600 ;;  i               1   16[COMRAM] unsigned char 
  1601 ;; Return value:  Size  Location     Type
  1602 ;;                  1    wreg      void 
  1603 ;; Registers used:
  1604 ;;		wreg, fsr2l, fsr2h, status,2, status,0, cstack
  1605 ;; Tracked objects:
  1606 ;;		On entry : 0/0
  1607 ;;		On exit  : 0/0
  1608 ;;		Unchanged: 0/0
  1609 ;; Data sizes:     COMRAM   BANK0   BANK1   BANK2   BANK3   BANK4   BANK5   BANK6   BANK7   BANK8   BANK9  BANK10  BANK1
      +1  BANK12
  1610 ;;      Params:         3       0       0       0       0       0       0       0       0       0       0       0       
      +0       0
  1611 ;;      Locals:         1       0       0       0       0       0       0       0       0       0       0       0       
      +0       0
  1612 ;;      Temps:          0       0       0       0       0       0       0       0       0       0       0       0       
      +0       0
  1613 ;;      Totals:         4       0       0       0       0       0       0       0       0       0       0       0       
      +0       0
  1614 ;;Total ram usage:        4 bytes
  1615 ;; Hardware stack levels used:    1
  1616 ;; Hardware stack levels required when called:    4
  1617 ;; This function calls:
  1618 ;;		_RECEIVE_UART
  1619 ;; This function is called by:
  1620 ;;		_main
  1621 ;; This function uses a non-reentrant model
  1622 ;;
  1623                           
  1624                           	psect	text6
  1625  0018C2                     __ptext6:
  1626                           	opt callstack 0
  1627  0018C2                     _RECEIVE_STRING:
  1628                           	opt callstack 26
  1629  0018C2                     
  1630                           ;SERIAL.c: 16:     for (unsigned char i = 0; i < numcaracteres; i++) {
  1631  0018C2  0E00               	movlw	0
  1632  0018C4  6E11               	movwf	RECEIVE_STRING@i^0,c
  1633  0018C6  EF6F  F00C         	goto	l1650
  1634  0018CA                     l1646:
  1635                           
  1636                           ;SERIAL.c: 17:         guardarscan[i] = RECEIVE_UART();
  1637  0018CA  5011               	movf	RECEIVE_STRING@i^0,w,c
  1638  0018CC  240E               	addwf	RECEIVE_STRING@guardarscan^0,w,c
  1639  0018CE  6ED9               	movwf	fsr2l,c
  1640  0018D0  0E00               	movlw	0
  1641  0018D2  200F               	addwfc	(RECEIVE_STRING@guardarscan+1)^0,w,c
  1642  0018D4  6EDA               	movwf	fsr2h,c
  1643  0018D6  ECD4  F00C         	call	_RECEIVE_UART	;wreg free
  1644  0018DA  6EDF               	movwf	indf2,c
  1645  0018DC                     
  1646                           ;SERIAL.c: 18:     }
  1647  0018DC  2A11               	incf	RECEIVE_STRING@i^0,f,c
  1648  0018DE                     l1650:
  1649  0018DE  5010               	movf	RECEIVE_STRING@numcaracteres^0,w,c
  1650  0018E0  5C11               	subwf	RECEIVE_STRING@i^0,w,c
  1651  0018E2  A0D8               	btfss	status,0,c
  1652  0018E4  EF76  F00C         	goto	u821
  1653  0018E8  EF78  F00C         	goto	u820
  1654  0018EC                     u821:
  1655  0018EC  EF65  F00C         	goto	l1646
  1656  0018F0                     u820:
  1657  0018F0  0012               	return		;funcret
  1658  0018F2                     __end_of_RECEIVE_STRING:
  1659                           	opt callstack 0
  1660                           
  1661 ;; *************** function _RECEIVE_UART *****************
  1662 ;; Defined at:
  1663 ;;		line 23 in file "UART.c"
  1664 ;; Parameters:    Size  Location     Type
  1665 ;;		None
  1666 ;; Auto vars:     Size  Location     Type
  1667 ;;		None
  1668 ;; Return value:  Size  Location     Type
  1669 ;;                  1    wreg      unsigned char 
  1670 ;; Registers used:
  1671 ;;		wreg, status,2
  1672 ;; Tracked objects:
  1673 ;;		On entry : 0/0
  1674 ;;		On exit  : 0/0
  1675 ;;		Unchanged: 0/0
  1676 ;; Data sizes:     COMRAM   BANK0   BANK1   BANK2   BANK3   BANK4   BANK5   BANK6   BANK7   BANK8   BANK9  BANK10  BANK1
      +1  BANK12
  1677 ;;      Params:         0       0       0       0       0       0       0       0       0       0       0       0       
      +0       0
  1678 ;;      Locals:         0       0       0       0       0       0       0       0       0       0       0       0       
      +0       0
  1679 ;;      Temps:          0       0       0       0       0       0       0       0       0       0       0       0       
      +0       0
  1680 ;;      Totals:         0       0       0       0       0       0       0       0       0       0       0       0       
      +0       0
  1681 ;;Total ram usage:        0 bytes
  1682 ;; Hardware stack levels used:    1
  1683 ;; Hardware stack levels required when called:    3
  1684 ;; This function calls:
  1685 ;;		Nothing
  1686 ;; This function is called by:
  1687 ;;		_RECEIVE_STRING
  1688 ;;		_main
  1689 ;; This function uses a non-reentrant model
  1690 ;;
  1691                           
  1692                           	psect	text7
  1693  0019A8                     __ptext7:
  1694                           	opt callstack 0
  1695  0019A8                     _RECEIVE_UART:
  1696                           	opt callstack 27
  1697  0019A8                     l183:
  1698                           
  1699                           ;UART.c: 24:     while (PIR1bits.RCIF == 0) {
  1700  0019A8  AA9E               	btfss	158,5,c	;volatile
  1701  0019AA  EFD9  F00C         	goto	u81
  1702  0019AE  EFDB  F00C         	goto	u80
  1703  0019B2                     u81:
  1704  0019B2  EFD4  F00C         	goto	l183
  1705  0019B6                     u80:
  1706  0019B6                     
  1707                           ;UART.c: 26:     RX_Data = RCREG;
  1708  0019B6  CFAE F03C          	movff	4014,_RX_Data	;volatile
  1709  0019BA                     
  1710                           ;UART.c: 27:     RCREG = 0;
  1711  0019BA  0E00               	movlw	0
  1712  0019BC  6EAE               	movwf	174,c	;volatile
  1713                           
  1714                           ;UART.c: 28:     return RX_Data;
  1715  0019BE  503C               	movf	_RX_Data^0,w,c
  1716  0019C0  0012               	return		;funcret
  1717  0019C2                     __end_of_RECEIVE_UART:
  1718                           	opt callstack 0
  1719                           
  1720 ;; *************** function _PROCESO_LEDS *****************
  1721 ;; Defined at:
  1722 ;;		line 23 in file "LEDS.c"
  1723 ;; Parameters:    Size  Location     Type
  1724 ;;		None
  1725 ;; Auto vars:     Size  Location     Type
  1726 ;;		None
  1727 ;; Return value:  Size  Location     Type
  1728 ;;                  1    wreg      void 
  1729 ;; Registers used:
  1730 ;;		None
  1731 ;; Tracked objects:
  1732 ;;		On entry : 0/0
  1733 ;;		On exit  : 0/0
  1734 ;;		Unchanged: 0/0
  1735 ;; Data sizes:     COMRAM   BANK0   BANK1   BANK2   BANK3   BANK4   BANK5   BANK6   BANK7   BANK8   BANK9  BANK10  BANK1
      +1  BANK12
  1736 ;;      Params:         0       0       0       0       0       0       0       0       0       0       0       0       
      +0       0
  1737 ;;      Locals:         0       0       0       0       0       0       0       0       0       0       0       0       
      +0       0
  1738 ;;      Temps:          0       0       0       0       0       0       0       0       0       0       0       0       
      +0       0
  1739 ;;      Totals:         0       0       0       0       0       0       0       0       0       0       0       0       
      +0       0
  1740 ;;Total ram usage:        0 bytes
  1741 ;; Hardware stack levels used:    1
  1742 ;; Hardware stack levels required when called:    3
  1743 ;; This function calls:
  1744 ;;		Nothing
  1745 ;; This function is called by:
  1746 ;;		_main
  1747 ;; This function uses a non-reentrant model
  1748 ;;
  1749                           
  1750                           	psect	text8
  1751  001A7A                     __ptext8:
  1752                           	opt callstack 0
  1753  001A7A                     _PROCESO_LEDS:
  1754                           	opt callstack 27
  1755  001A7A  9A8A               	bcf	138,5,c	;volatile
  1756  001A7C  9C8A               	bcf	138,6,c	;volatile
  1757  001A7E  8E8A               	bsf	138,7,c	;volatile
  1758  001A80  0012               	return		;funcret
  1759  001A82                     __end_of_PROCESO_LEDS:
  1760                           	opt callstack 0
  1761                           
  1762 ;; *************** function _PROCESO *****************
  1763 ;; Defined at:
  1764 ;;		line 24 in file "MENSAJES.c"
  1765 ;; Parameters:    Size  Location     Type
  1766 ;;		None
  1767 ;; Auto vars:     Size  Location     Type
  1768 ;;		None
  1769 ;; Return value:  Size  Location     Type
  1770 ;;                  1    wreg      void 
  1771 ;; Registers used:
  1772 ;;		wreg, fsr0l, fsr0h, status,2, status,0, tblptrl, tblptrh, tblptru, cstack
  1773 ;; Tracked objects:
  1774 ;;		On entry : 0/0
  1775 ;;		On exit  : 0/0
  1776 ;;		Unchanged: 0/0
  1777 ;; Data sizes:     COMRAM   BANK0   BANK1   BANK2   BANK3   BANK4   BANK5   BANK6   BANK7   BANK8   BANK9  BANK10  BANK1
      +1  BANK12
  1778 ;;      Params:         0       0       0       0       0       0       0       0       0       0       0       0       
      +0       0
  1779 ;;      Locals:         0       0       0       0       0       0       0       0       0       0       0       0       
      +0       0
  1780 ;;      Temps:          0       0       0       0       0       0       0       0       0       0       0       0       
      +0       0
  1781 ;;      Totals:         0       0       0       0       0       0       0       0       0       0       0       0       
      +0       0
  1782 ;;Total ram usage:        0 bytes
  1783 ;; Hardware stack levels used:    1
  1784 ;; Hardware stack levels required when called:    5
  1785 ;; This function calls:
  1786 ;;		_SEND_STRING
  1787 ;;		_SEND_UART
  1788 ;; This function is called by:
  1789 ;;		_main
  1790 ;; This function uses a non-reentrant model
  1791 ;;
  1792                           
  1793                           	psect	text9
  1794  0019C2                     __ptext9:
  1795                           	opt callstack 0
  1796  0019C2                     _PROCESO:
  1797                           	opt callstack 25
  1798  0019C2                     
  1799                           ;MENSAJES.c: 25:     SEND_UART(10);
  1800  0019C2  0E0A               	movlw	10
  1801  0019C4  EC08  F00D         	call	_SEND_UART
  1802  0019C8                     
  1803                           ;MENSAJES.c: 26:     SEND_STRING("En proceso");
  1804  0019C8  0E83               	movlw	low STR_8
  1805  0019CA  6E0F               	movwf	SEND_STRING@PointString^0,c
  1806  0019CC  0E0D               	movlw	high STR_8
  1807  0019CE  6E10               	movwf	(SEND_STRING@PointString+1)^0,c
  1808  0019D0  EC19  F00A         	call	_SEND_STRING	;wreg free
  1809  0019D4                     
  1810                           ;MENSAJES.c: 27:     SEND_UART(10);
  1811  0019D4  0E0A               	movlw	10
  1812  0019D6  EC08  F00D         	call	_SEND_UART
  1813  0019DA  0012               	return		;funcret
  1814  0019DC                     __end_of_PROCESO:
  1815                           	opt callstack 0
  1816                           
  1817 ;; *************** function _MOV_R_PASOS_Y *****************
  1818 ;; Defined at:
  1819 ;;		line 51 in file "STEP_MOTOR.c"
  1820 ;; Parameters:    Size  Location     Type
  1821 ;;  posicion        2   13[COMRAM] unsigned short 
  1822 ;;  coordenada      2   15[COMRAM] unsigned short 
  1823 ;; Auto vars:     Size  Location     Type
  1824 ;;  i               1   17[COMRAM] unsigned char 
  1825 ;; Return value:  Size  Location     Type
  1826 ;;                  2   13[COMRAM] unsigned short 
  1827 ;; Registers used:
  1828 ;;		wreg, status,2, status,0
  1829 ;; Tracked objects:
  1830 ;;		On entry : 0/0
  1831 ;;		On exit  : 0/0
  1832 ;;		Unchanged: 0/0
  1833 ;; Data sizes:     COMRAM   BANK0   BANK1   BANK2   BANK3   BANK4   BANK5   BANK6   BANK7   BANK8   BANK9  BANK10  BANK1
      +1  BANK12
  1834 ;;      Params:         4       0       0       0       0       0       0       0       0       0       0       0       
      +0       0
  1835 ;;      Locals:         1       0       0       0       0       0       0       0       0       0       0       0       
      +0       0
  1836 ;;      Temps:          0       0       0       0       0       0       0       0       0       0       0       0       
      +0       0
  1837 ;;      Totals:         5       0       0       0       0       0       0       0       0       0       0       0       
      +0       0
  1838 ;;Total ram usage:        5 bytes
  1839 ;; Hardware stack levels used:    1
  1840 ;; Hardware stack levels required when called:    3
  1841 ;; This function calls:
  1842 ;;		Nothing
  1843 ;; This function is called by:
  1844 ;;		_main
  1845 ;; This function uses a non-reentrant model
  1846 ;;
  1847                           
  1848                           	psect	text10
  1849  0017D6                     __ptext10:
  1850                           	opt callstack 0
  1851  0017D6                     _MOV_R_PASOS_Y:
  1852                           	opt callstack 27
  1853  0017D6                     
  1854                           ;STEP_MOTOR.c: 52:     if (posicion < coordenada) {
  1855  0017D6  5010               	movf	MOV_R_PASOS_Y@coordenada^0,w,c
  1856  0017D8  5C0E               	subwf	MOV_R_PASOS_Y@posicion^0,w,c
  1857  0017DA  5011               	movf	(MOV_R_PASOS_Y@coordenada+1)^0,w,c
  1858  0017DC  580F               	subwfb	(MOV_R_PASOS_Y@posicion+1)^0,w,c
  1859  0017DE  B0D8               	btfsc	status,0,c
  1860  0017E0  EFF4  F00B         	goto	u891
  1861  0017E4  EFF6  F00B         	goto	u890
  1862  0017E8                     u891:
  1863  0017E8  EF25  F00C         	goto	l144
  1864  0017EC                     u890:
  1865  0017EC                     
  1866                           ;STEP_MOTOR.c: 53:         PORTDbits.RD2 = 0;
  1867  0017EC  9483               	bcf	131,2,c	;volatile
  1868                           
  1869                           ;STEP_MOTOR.c: 54:         PORTDbits.RD3 = 1;
  1870  0017EE  8683               	bsf	131,3,c	;volatile
  1871                           
  1872                           ;STEP_MOTOR.c: 55:         for (; posicion < coordenada; posicion++) {
  1873  0017F0  EF11  F00C         	goto	l1710
  1874  0017F4                     l1696:
  1875                           
  1876                           ;STEP_MOTOR.c: 56:             for (unsigned char i = 0; i < 5; i++) {
  1877  0017F4  0E00               	movlw	0
  1878  0017F6  6E12               	movwf	MOV_R_PASOS_Y@i^0,c
  1879  0017F8                     l141:
  1880                           
  1881                           ;STEP_MOTOR.c: 57:                 PORTCbits.RC2 = 1;
  1882  0017F8  8482               	bsf	130,2,c	;volatile
  1883  0017FA                     
  1884                           ;STEP_MOTOR.c: 58:                 _delay((unsigned long)((1)*(4000000/4000.0)));
  1885  0017FA  0EC8               	movlw	200
  1886  0017FC                     u1477:
  1887  0017FC  D000               	nop2	
  1888  0017FE  2EE8               	decfsz	wreg,f,c
  1889  001800  D7FD               	bra	u1477
  1890  001802                     
  1891                           ;STEP_MOTOR.c: 59:                 PORTCbits.RC2 = 0;
  1892  001802  9482               	bcf	130,2,c	;volatile
  1893                           
  1894                           ;STEP_MOTOR.c: 60:                 _delay((unsigned long)((1)*(4000000/4000.0)));
  1895  001804  0EC8               	movlw	200
  1896  001806                     u1487:
  1897  001806  D000               	nop2	
  1898  001808  2EE8               	decfsz	wreg,f,c
  1899  00180A  D7FD               	bra	u1487
  1900  00180C                     
  1901                           ;STEP_MOTOR.c: 61:             }
  1902  00180C  2A12               	incf	MOV_R_PASOS_Y@i^0,f,c
  1903  00180E  0E04               	movlw	4
  1904  001810  6412               	cpfsgt	MOV_R_PASOS_Y@i^0,c
  1905  001812  EF0D  F00C         	goto	u901
  1906  001816  EF0F  F00C         	goto	u900
  1907  00181A                     u901:
  1908  00181A  EFFC  F00B         	goto	l141
  1909  00181E                     u900:
  1910  00181E                     
  1911                           ;STEP_MOTOR.c: 62:         }
  1912  00181E  4A0E               	infsnz	MOV_R_PASOS_Y@posicion^0,f,c
  1913  001820  2A0F               	incf	(MOV_R_PASOS_Y@posicion+1)^0,f,c
  1914  001822                     l1710:
  1915  001822  5010               	movf	MOV_R_PASOS_Y@coordenada^0,w,c
  1916  001824  5C0E               	subwf	MOV_R_PASOS_Y@posicion^0,w,c
  1917  001826  5011               	movf	(MOV_R_PASOS_Y@coordenada+1)^0,w,c
  1918  001828  580F               	subwfb	(MOV_R_PASOS_Y@posicion+1)^0,w,c
  1919  00182A  A0D8               	btfss	status,0,c
  1920  00182C  EF1A  F00C         	goto	u911
  1921  001830  EF1C  F00C         	goto	u910
  1922  001834                     u911:
  1923  001834  EFFA  F00B         	goto	l1696
  1924  001838                     u910:
  1925  001838                     
  1926                           ;STEP_MOTOR.c: 63:         PORTDbits.RD2 = 1;
  1927  001838  8483               	bsf	131,2,c	;volatile
  1928                           
  1929                           ;STEP_MOTOR.c: 64:         posicion = coordenada;
  1930  00183A  C010  F00E         	movff	MOV_R_PASOS_Y@coordenada,MOV_R_PASOS_Y@posicion
  1931  00183E  C011  F00F         	movff	MOV_R_PASOS_Y@coordenada+1,MOV_R_PASOS_Y@posicion+1
  1932                           
  1933                           ;STEP_MOTOR.c: 65:         return posicion;
  1934  001842  C00E  F00E         	movff	MOV_R_PASOS_Y@posicion,?_MOV_R_PASOS_Y
  1935  001846  C00F  F00F         	movff	MOV_R_PASOS_Y@posicion+1,?_MOV_R_PASOS_Y+1
  1936  00184A                     l144:
  1937  00184A  0012               	return		;funcret
  1938  00184C                     __end_of_MOV_R_PASOS_Y:
  1939                           	opt callstack 0
  1940                           
  1941 ;; *************** function _MOV_R_PASOS_X *****************
  1942 ;; Defined at:
  1943 ;;		line 15 in file "STEP_MOTOR.c"
  1944 ;; Parameters:    Size  Location     Type
  1945 ;;  posicion        2   13[COMRAM] unsigned short 
  1946 ;;  coordenada      2   15[COMRAM] unsigned short 
  1947 ;; Auto vars:     Size  Location     Type
  1948 ;;  i               1   17[COMRAM] unsigned char 
  1949 ;; Return value:  Size  Location     Type
  1950 ;;                  2   13[COMRAM] unsigned short 
  1951 ;; Registers used:
  1952 ;;		wreg, status,2, status,0
  1953 ;; Tracked objects:
  1954 ;;		On entry : 0/0
  1955 ;;		On exit  : 0/0
  1956 ;;		Unchanged: 0/0
  1957 ;; Data sizes:     COMRAM   BANK0   BANK1   BANK2   BANK3   BANK4   BANK5   BANK6   BANK7   BANK8   BANK9  BANK10  BANK1
      +1  BANK12
  1958 ;;      Params:         4       0       0       0       0       0       0       0       0       0       0       0       
      +0       0
  1959 ;;      Locals:         1       0       0       0       0       0       0       0       0       0       0       0       
      +0       0
  1960 ;;      Temps:          0       0       0       0       0       0       0       0       0       0       0       0       
      +0       0
  1961 ;;      Totals:         5       0       0       0       0       0       0       0       0       0       0       0       
      +0       0
  1962 ;;Total ram usage:        5 bytes
  1963 ;; Hardware stack levels used:    1
  1964 ;; Hardware stack levels required when called:    3
  1965 ;; This function calls:
  1966 ;;		Nothing
  1967 ;; This function is called by:
  1968 ;;		_main
  1969 ;; This function uses a non-reentrant model
  1970 ;;
  1971                           
  1972                           	psect	text11
  1973  00184C                     __ptext11:
  1974                           	opt callstack 0
  1975  00184C                     _MOV_R_PASOS_X:
  1976                           	opt callstack 27
  1977  00184C                     
  1978                           ;STEP_MOTOR.c: 16:     if (posicion < coordenada) {
  1979  00184C  5010               	movf	MOV_R_PASOS_X@coordenada^0,w,c
  1980  00184E  5C0E               	subwf	MOV_R_PASOS_X@posicion^0,w,c
  1981  001850  5011               	movf	(MOV_R_PASOS_X@coordenada+1)^0,w,c
  1982  001852  580F               	subwfb	(MOV_R_PASOS_X@posicion+1)^0,w,c
  1983  001854  B0D8               	btfsc	status,0,c
  1984  001856  EF2F  F00C         	goto	u831
  1985  00185A  EF31  F00C         	goto	u830
  1986  00185E                     u831:
  1987  00185E  EF60  F00C         	goto	l126
  1988  001862                     u830:
  1989  001862                     
  1990                           ;STEP_MOTOR.c: 17:         PORTDbits.RD0 = 0;
  1991  001862  9083               	bcf	131,0,c	;volatile
  1992                           
  1993                           ;STEP_MOTOR.c: 18:         PORTDbits.RD1 = 1;
  1994  001864  8283               	bsf	131,1,c	;volatile
  1995                           
  1996                           ;STEP_MOTOR.c: 19:         for (; posicion < coordenada; posicion++) {
  1997  001866  EF4C  F00C         	goto	l1670
  1998  00186A                     l1656:
  1999                           
  2000                           ;STEP_MOTOR.c: 20:             for (unsigned char i = 0; i < 5; i++) {
  2001  00186A  0E00               	movlw	0
  2002  00186C  6E12               	movwf	MOV_R_PASOS_X@i^0,c
  2003  00186E                     l123:
  2004                           
  2005                           ;STEP_MOTOR.c: 21:                 PORTCbits.RC1 = 1;
  2006  00186E  8282               	bsf	130,1,c	;volatile
  2007  001870                     
  2008                           ;STEP_MOTOR.c: 22:                 _delay((unsigned long)((1)*(4000000/4000.0)));
  2009  001870  0EC8               	movlw	200
  2010  001872                     u1497:
  2011  001872  D000               	nop2	
  2012  001874  2EE8               	decfsz	wreg,f,c
  2013  001876  D7FD               	bra	u1497
  2014  001878                     
  2015                           ;STEP_MOTOR.c: 23:                 PORTCbits.RC1 = 0;
  2016  001878  9282               	bcf	130,1,c	;volatile
  2017                           
  2018                           ;STEP_MOTOR.c: 24:                 _delay((unsigned long)((1)*(4000000/4000.0)));
  2019  00187A  0EC8               	movlw	200
  2020  00187C                     u1507:
  2021  00187C  D000               	nop2	
  2022  00187E  2EE8               	decfsz	wreg,f,c
  2023  001880  D7FD               	bra	u1507
  2024  001882                     
  2025                           ;STEP_MOTOR.c: 25:             }
  2026  001882  2A12               	incf	MOV_R_PASOS_X@i^0,f,c
  2027  001884  0E04               	movlw	4
  2028  001886  6412               	cpfsgt	MOV_R_PASOS_X@i^0,c
  2029  001888  EF48  F00C         	goto	u841
  2030  00188C  EF4A  F00C         	goto	u840
  2031  001890                     u841:
  2032  001890  EF37  F00C         	goto	l123
  2033  001894                     u840:
  2034  001894                     
  2035                           ;STEP_MOTOR.c: 26:         }
  2036  001894  4A0E               	infsnz	MOV_R_PASOS_X@posicion^0,f,c
  2037  001896  2A0F               	incf	(MOV_R_PASOS_X@posicion+1)^0,f,c
  2038  001898                     l1670:
  2039  001898  5010               	movf	MOV_R_PASOS_X@coordenada^0,w,c
  2040  00189A  5C0E               	subwf	MOV_R_PASOS_X@posicion^0,w,c
  2041  00189C  5011               	movf	(MOV_R_PASOS_X@coordenada+1)^0,w,c
  2042  00189E  580F               	subwfb	(MOV_R_PASOS_X@posicion+1)^0,w,c
  2043  0018A0  A0D8               	btfss	status,0,c
  2044  0018A2  EF55  F00C         	goto	u851
  2045  0018A6  EF57  F00C         	goto	u850
  2046  0018AA                     u851:
  2047  0018AA  EF35  F00C         	goto	l1656
  2048  0018AE                     u850:
  2049  0018AE                     
  2050                           ;STEP_MOTOR.c: 27:         PORTDbits.RD0 = 1;
  2051  0018AE  8083               	bsf	131,0,c	;volatile
  2052                           
  2053                           ;STEP_MOTOR.c: 28:         posicion = coordenada;
  2054  0018B0  C010  F00E         	movff	MOV_R_PASOS_X@coordenada,MOV_R_PASOS_X@posicion
  2055  0018B4  C011  F00F         	movff	MOV_R_PASOS_X@coordenada+1,MOV_R_PASOS_X@posicion+1
  2056                           
  2057                           ;STEP_MOTOR.c: 29:         return posicion;
  2058  0018B8  C00E  F00E         	movff	MOV_R_PASOS_X@posicion,?_MOV_R_PASOS_X
  2059  0018BC  C00F  F00F         	movff	MOV_R_PASOS_X@posicion+1,?_MOV_R_PASOS_X+1
  2060  0018C0                     l126:
  2061  0018C0  0012               	return		;funcret
  2062  0018C2                     __end_of_MOV_R_PASOS_X:
  2063                           	opt callstack 0
  2064                           
  2065 ;; *************** function _MOV_L_PASOS_Y *****************
  2066 ;; Defined at:
  2067 ;;		line 69 in file "STEP_MOTOR.c"
  2068 ;; Parameters:    Size  Location     Type
  2069 ;;  posicion        2   13[COMRAM] unsigned short 
  2070 ;;  coordenada      2   15[COMRAM] unsigned short 
  2071 ;; Auto vars:     Size  Location     Type
  2072 ;;  i               1   17[COMRAM] unsigned char 
  2073 ;; Return value:  Size  Location     Type
  2074 ;;                  2   13[COMRAM] unsigned short 
  2075 ;; Registers used:
  2076 ;;		wreg, status,2, status,0
  2077 ;; Tracked objects:
  2078 ;;		On entry : 0/0
  2079 ;;		On exit  : 0/0
  2080 ;;		Unchanged: 0/0
  2081 ;; Data sizes:     COMRAM   BANK0   BANK1   BANK2   BANK3   BANK4   BANK5   BANK6   BANK7   BANK8   BANK9  BANK10  BANK1
      +1  BANK12
  2082 ;;      Params:         4       0       0       0       0       0       0       0       0       0       0       0       
      +0       0
  2083 ;;      Locals:         1       0       0       0       0       0       0       0       0       0       0       0       
      +0       0
  2084 ;;      Temps:          0       0       0       0       0       0       0       0       0       0       0       0       
      +0       0
  2085 ;;      Totals:         5       0       0       0       0       0       0       0       0       0       0       0       
      +0       0
  2086 ;;Total ram usage:        5 bytes
  2087 ;; Hardware stack levels used:    1
  2088 ;; Hardware stack levels required when called:    3
  2089 ;; This function calls:
  2090 ;;		Nothing
  2091 ;; This function is called by:
  2092 ;;		_main
  2093 ;; This function uses a non-reentrant model
  2094 ;;
  2095                           
  2096                           	psect	text12
  2097  0016E6                     __ptext12:
  2098                           	opt callstack 0
  2099  0016E6                     _MOV_L_PASOS_Y:
  2100                           	opt callstack 27
  2101  0016E6                     
  2102                           ;STEP_MOTOR.c: 70:     if (posicion > coordenada) {
  2103  0016E6  500E               	movf	MOV_L_PASOS_Y@posicion^0,w,c
  2104  0016E8  5C10               	subwf	MOV_L_PASOS_Y@coordenada^0,w,c
  2105  0016EA  500F               	movf	(MOV_L_PASOS_Y@posicion+1)^0,w,c
  2106  0016EC  5811               	subwfb	(MOV_L_PASOS_Y@coordenada+1)^0,w,c
  2107  0016EE  B0D8               	btfsc	status,0,c
  2108  0016F0  EF7C  F00B         	goto	u921
  2109  0016F4  EF7E  F00B         	goto	u920
  2110  0016F8                     u921:
  2111  0016F8  EFAE  F00B         	goto	l153
  2112  0016FC                     u920:
  2113  0016FC                     
  2114                           ;STEP_MOTOR.c: 71:         PORTDbits.RD2 = 0;
  2115  0016FC  9483               	bcf	131,2,c	;volatile
  2116                           
  2117                           ;STEP_MOTOR.c: 72:         PORTDbits.RD3 = 0;
  2118  0016FE  9683               	bcf	131,3,c	;volatile
  2119                           
  2120                           ;STEP_MOTOR.c: 73:         for (; posicion > coordenada; posicion--) {
  2121  001700  EF9A  F00B         	goto	l1730
  2122  001704                     l1716:
  2123                           
  2124                           ;STEP_MOTOR.c: 74:             for (unsigned char i = 0; i < 5; i++) {
  2125  001704  0E00               	movlw	0
  2126  001706  6E12               	movwf	MOV_L_PASOS_Y@i^0,c
  2127  001708                     l150:
  2128                           
  2129                           ;STEP_MOTOR.c: 75:                 PORTCbits.RC2 = 1;
  2130  001708  8482               	bsf	130,2,c	;volatile
  2131  00170A                     
  2132                           ;STEP_MOTOR.c: 76:                 _delay((unsigned long)((1)*(4000000/4000.0)));
  2133  00170A  0EC8               	movlw	200
  2134  00170C                     u1517:
  2135  00170C  D000               	nop2	
  2136  00170E  2EE8               	decfsz	wreg,f,c
  2137  001710  D7FD               	bra	u1517
  2138  001712                     
  2139                           ;STEP_MOTOR.c: 77:                 PORTCbits.RC2 = 0;
  2140  001712  9482               	bcf	130,2,c	;volatile
  2141                           
  2142                           ;STEP_MOTOR.c: 78:                 _delay((unsigned long)((1)*(4000000/4000.0)));
  2143  001714  0EC8               	movlw	200
  2144  001716                     u1527:
  2145  001716  D000               	nop2	
  2146  001718  2EE8               	decfsz	wreg,f,c
  2147  00171A  D7FD               	bra	u1527
  2148  00171C                     
  2149                           ;STEP_MOTOR.c: 79:             }
  2150  00171C  2A12               	incf	MOV_L_PASOS_Y@i^0,f,c
  2151  00171E  0E04               	movlw	4
  2152  001720  6412               	cpfsgt	MOV_L_PASOS_Y@i^0,c
  2153  001722  EF95  F00B         	goto	u931
  2154  001726  EF97  F00B         	goto	u930
  2155  00172A                     u931:
  2156  00172A  EF84  F00B         	goto	l150
  2157  00172E                     u930:
  2158  00172E                     
  2159                           ;STEP_MOTOR.c: 80:         }
  2160  00172E  060E               	decf	MOV_L_PASOS_Y@posicion^0,f,c
  2161  001730  A0D8               	btfss	status,0,c
  2162  001732  060F               	decf	(MOV_L_PASOS_Y@posicion+1)^0,f,c
  2163  001734                     l1730:
  2164  001734  500E               	movf	MOV_L_PASOS_Y@posicion^0,w,c
  2165  001736  5C10               	subwf	MOV_L_PASOS_Y@coordenada^0,w,c
  2166  001738  500F               	movf	(MOV_L_PASOS_Y@posicion+1)^0,w,c
  2167  00173A  5811               	subwfb	(MOV_L_PASOS_Y@coordenada+1)^0,w,c
  2168  00173C  A0D8               	btfss	status,0,c
  2169  00173E  EFA3  F00B         	goto	u941
  2170  001742  EFA5  F00B         	goto	u940
  2171  001746                     u941:
  2172  001746  EF82  F00B         	goto	l1716
  2173  00174A                     u940:
  2174  00174A                     
  2175                           ;STEP_MOTOR.c: 81:         PORTDbits.RD2 = 1;
  2176  00174A  8483               	bsf	131,2,c	;volatile
  2177                           
  2178                           ;STEP_MOTOR.c: 82:         posicion = coordenada;
  2179  00174C  C010  F00E         	movff	MOV_L_PASOS_Y@coordenada,MOV_L_PASOS_Y@posicion
  2180  001750  C011  F00F         	movff	MOV_L_PASOS_Y@coordenada+1,MOV_L_PASOS_Y@posicion+1
  2181                           
  2182                           ;STEP_MOTOR.c: 83:         return posicion;
  2183  001754  C00E  F00E         	movff	MOV_L_PASOS_Y@posicion,?_MOV_L_PASOS_Y
  2184  001758  C00F  F00F         	movff	MOV_L_PASOS_Y@posicion+1,?_MOV_L_PASOS_Y+1
  2185  00175C                     l153:
  2186  00175C  0012               	return		;funcret
  2187  00175E                     __end_of_MOV_L_PASOS_Y:
  2188                           	opt callstack 0
  2189                           
  2190 ;; *************** function _MOV_L_PASOS_X *****************
  2191 ;; Defined at:
  2192 ;;		line 33 in file "STEP_MOTOR.c"
  2193 ;; Parameters:    Size  Location     Type
  2194 ;;  posicion        2   13[COMRAM] unsigned short 
  2195 ;;  coordenada      2   15[COMRAM] unsigned short 
  2196 ;; Auto vars:     Size  Location     Type
  2197 ;;  i               1   17[COMRAM] unsigned char 
  2198 ;; Return value:  Size  Location     Type
  2199 ;;                  2   13[COMRAM] unsigned short 
  2200 ;; Registers used:
  2201 ;;		wreg, status,2, status,0
  2202 ;; Tracked objects:
  2203 ;;		On entry : 0/0
  2204 ;;		On exit  : 0/0
  2205 ;;		Unchanged: 0/0
  2206 ;; Data sizes:     COMRAM   BANK0   BANK1   BANK2   BANK3   BANK4   BANK5   BANK6   BANK7   BANK8   BANK9  BANK10  BANK1
      +1  BANK12
  2207 ;;      Params:         4       0       0       0       0       0       0       0       0       0       0       0       
      +0       0
  2208 ;;      Locals:         1       0       0       0       0       0       0       0       0       0       0       0       
      +0       0
  2209 ;;      Temps:          0       0       0       0       0       0       0       0       0       0       0       0       
      +0       0
  2210 ;;      Totals:         5       0       0       0       0       0       0       0       0       0       0       0       
      +0       0
  2211 ;;Total ram usage:        5 bytes
  2212 ;; Hardware stack levels used:    1
  2213 ;; Hardware stack levels required when called:    3
  2214 ;; This function calls:
  2215 ;;		Nothing
  2216 ;; This function is called by:
  2217 ;;		_main
  2218 ;; This function uses a non-reentrant model
  2219 ;;
  2220                           
  2221                           	psect	text13
  2222  00175E                     __ptext13:
  2223                           	opt callstack 0
  2224  00175E                     _MOV_L_PASOS_X:
  2225                           	opt callstack 27
  2226  00175E                     
  2227                           ;STEP_MOTOR.c: 34:     if (posicion > coordenada) {
  2228  00175E  500E               	movf	MOV_L_PASOS_X@posicion^0,w,c
  2229  001760  5C10               	subwf	MOV_L_PASOS_X@coordenada^0,w,c
  2230  001762  500F               	movf	(MOV_L_PASOS_X@posicion+1)^0,w,c
  2231  001764  5811               	subwfb	(MOV_L_PASOS_X@coordenada+1)^0,w,c
  2232  001766  B0D8               	btfsc	status,0,c
  2233  001768  EFB8  F00B         	goto	u861
  2234  00176C  EFBA  F00B         	goto	u860
  2235  001770                     u861:
  2236  001770  EFEA  F00B         	goto	l135
  2237  001774                     u860:
  2238  001774                     
  2239                           ;STEP_MOTOR.c: 35:         PORTDbits.RD0 = 0;
  2240  001774  9083               	bcf	131,0,c	;volatile
  2241                           
  2242                           ;STEP_MOTOR.c: 36:         PORTDbits.RD1 = 0;
  2243  001776  9283               	bcf	131,1,c	;volatile
  2244                           
  2245                           ;STEP_MOTOR.c: 37:         for (; posicion > coordenada; posicion--) {
  2246  001778  EFD6  F00B         	goto	l1690
  2247  00177C                     l1676:
  2248                           
  2249                           ;STEP_MOTOR.c: 38:             for (unsigned char i = 0; i < 5; i++) {
  2250  00177C  0E00               	movlw	0
  2251  00177E  6E12               	movwf	MOV_L_PASOS_X@i^0,c
  2252  001780                     l132:
  2253                           
  2254                           ;STEP_MOTOR.c: 39:                 PORTCbits.RC1 = 1;
  2255  001780  8282               	bsf	130,1,c	;volatile
  2256  001782                     
  2257                           ;STEP_MOTOR.c: 40:                 _delay((unsigned long)((1)*(4000000/4000.0)));
  2258  001782  0EC8               	movlw	200
  2259  001784                     u1537:
  2260  001784  D000               	nop2	
  2261  001786  2EE8               	decfsz	wreg,f,c
  2262  001788  D7FD               	bra	u1537
  2263  00178A                     
  2264                           ;STEP_MOTOR.c: 41:                 PORTCbits.RC1 = 0;
  2265  00178A  9282               	bcf	130,1,c	;volatile
  2266                           
  2267                           ;STEP_MOTOR.c: 42:                 _delay((unsigned long)((1)*(4000000/4000.0)));
  2268  00178C  0EC8               	movlw	200
  2269  00178E                     u1547:
  2270  00178E  D000               	nop2	
  2271  001790  2EE8               	decfsz	wreg,f,c
  2272  001792  D7FD               	bra	u1547
  2273  001794                     
  2274                           ;STEP_MOTOR.c: 43:             }
  2275  001794  2A12               	incf	MOV_L_PASOS_X@i^0,f,c
  2276  001796  0E04               	movlw	4
  2277  001798  6412               	cpfsgt	MOV_L_PASOS_X@i^0,c
  2278  00179A  EFD1  F00B         	goto	u871
  2279  00179E  EFD3  F00B         	goto	u870
  2280  0017A2                     u871:
  2281  0017A2  EFC0  F00B         	goto	l132
  2282  0017A6                     u870:
  2283  0017A6                     
  2284                           ;STEP_MOTOR.c: 44:         }
  2285  0017A6  060E               	decf	MOV_L_PASOS_X@posicion^0,f,c
  2286  0017A8  A0D8               	btfss	status,0,c
  2287  0017AA  060F               	decf	(MOV_L_PASOS_X@posicion+1)^0,f,c
  2288  0017AC                     l1690:
  2289  0017AC  500E               	movf	MOV_L_PASOS_X@posicion^0,w,c
  2290  0017AE  5C10               	subwf	MOV_L_PASOS_X@coordenada^0,w,c
  2291  0017B0  500F               	movf	(MOV_L_PASOS_X@posicion+1)^0,w,c
  2292  0017B2  5811               	subwfb	(MOV_L_PASOS_X@coordenada+1)^0,w,c
  2293  0017B4  A0D8               	btfss	status,0,c
  2294  0017B6  EFDF  F00B         	goto	u881
  2295  0017BA  EFE1  F00B         	goto	u880
  2296  0017BE                     u881:
  2297  0017BE  EFBE  F00B         	goto	l1676
  2298  0017C2                     u880:
  2299  0017C2                     
  2300                           ;STEP_MOTOR.c: 45:         PORTDbits.RD0 = 1;
  2301  0017C2  8083               	bsf	131,0,c	;volatile
  2302                           
  2303                           ;STEP_MOTOR.c: 46:         posicion = coordenada;
  2304  0017C4  C010  F00E         	movff	MOV_L_PASOS_X@coordenada,MOV_L_PASOS_X@posicion
  2305  0017C8  C011  F00F         	movff	MOV_L_PASOS_X@coordenada+1,MOV_L_PASOS_X@posicion+1
  2306                           
  2307                           ;STEP_MOTOR.c: 47:         return posicion;
  2308  0017CC  C00E  F00E         	movff	MOV_L_PASOS_X@posicion,?_MOV_L_PASOS_X
  2309  0017D0  C00F  F00F         	movff	MOV_L_PASOS_X@posicion+1,?_MOV_L_PASOS_X+1
  2310  0017D4                     l135:
  2311  0017D4  0012               	return		;funcret
  2312  0017D6                     __end_of_MOV_L_PASOS_X:
  2313                           	opt callstack 0
  2314                           
  2315 ;; *************** function _LEDS_OFF *****************
  2316 ;; Defined at:
  2317 ;;		line 11 in file "LEDS.c"
  2318 ;; Parameters:    Size  Location     Type
  2319 ;;		None
  2320 ;; Auto vars:     Size  Location     Type
  2321 ;;		None
  2322 ;; Return value:  Size  Location     Type
  2323 ;;                  1    wreg      void 
  2324 ;; Registers used:
  2325 ;;		None
  2326 ;; Tracked objects:
  2327 ;;		On entry : 0/0
  2328 ;;		On exit  : 0/0
  2329 ;;		Unchanged: 0/0
  2330 ;; Data sizes:     COMRAM   BANK0   BANK1   BANK2   BANK3   BANK4   BANK5   BANK6   BANK7   BANK8   BANK9  BANK10  BANK1
      +1  BANK12
  2331 ;;      Params:         0       0       0       0       0       0       0       0       0       0       0       0       
      +0       0
  2332 ;;      Locals:         0       0       0       0       0       0       0       0       0       0       0       0       
      +0       0
  2333 ;;      Temps:          0       0       0       0       0       0       0       0       0       0       0       0       
      +0       0
  2334 ;;      Totals:         0       0       0       0       0       0       0       0       0       0       0       0       
      +0       0
  2335 ;;Total ram usage:        0 bytes
  2336 ;; Hardware stack levels used:    1
  2337 ;; Hardware stack levels required when called:    3
  2338 ;; This function calls:
  2339 ;;		Nothing
  2340 ;; This function is called by:
  2341 ;;		_main
  2342 ;; This function uses a non-reentrant model
  2343 ;;
  2344                           
  2345                           	psect	text14
  2346  001A82                     __ptext14:
  2347                           	opt callstack 0
  2348  001A82                     _LEDS_OFF:
  2349                           	opt callstack 27
  2350  001A82  9A8A               	bcf	138,5,c	;volatile
  2351  001A84  9C8A               	bcf	138,6,c	;volatile
  2352  001A86  9E8A               	bcf	138,7,c	;volatile
  2353  001A88  0012               	return		;funcret
  2354  001A8A                     __end_of_LEDS_OFF:
  2355                           	opt callstack 0
  2356                           
  2357 ;; *************** function _INIT_UART *****************
  2358 ;; Defined at:
  2359 ;;		line 4 in file "UART.c"
  2360 ;; Parameters:    Size  Location     Type
  2361 ;;		None
  2362 ;; Auto vars:     Size  Location     Type
  2363 ;;		None
  2364 ;; Return value:  Size  Location     Type
  2365 ;;                  1    wreg      void 
  2366 ;; Registers used:
  2367 ;;		wreg, status,2
  2368 ;; Tracked objects:
  2369 ;;		On entry : 0/0
  2370 ;;		On exit  : 0/0
  2371 ;;		Unchanged: 0/0
  2372 ;; Data sizes:     COMRAM   BANK0   BANK1   BANK2   BANK3   BANK4   BANK5   BANK6   BANK7   BANK8   BANK9  BANK10  BANK1
      +1  BANK12
  2373 ;;      Params:         0       0       0       0       0       0       0       0       0       0       0       0       
      +0       0
  2374 ;;      Locals:         0       0       0       0       0       0       0       0       0       0       0       0       
      +0       0
  2375 ;;      Temps:          0       0       0       0       0       0       0       0       0       0       0       0       
      +0       0
  2376 ;;      Totals:         0       0       0       0       0       0       0       0       0       0       0       0       
      +0       0
  2377 ;;Total ram usage:        0 bytes
  2378 ;; Hardware stack levels used:    1
  2379 ;; Hardware stack levels required when called:    3
  2380 ;; This function calls:
  2381 ;;		Nothing
  2382 ;; This function is called by:
  2383 ;;		_main
  2384 ;; This function uses a non-reentrant model
  2385 ;;
  2386                           
  2387                           	psect	text15
  2388  001A3C                     __ptext15:
  2389                           	opt callstack 0
  2390  001A3C                     _INIT_UART:
  2391                           	opt callstack 27
  2392  001A3C                     
  2393                           ;UART.c: 8:     TRISCbits.TRISC7 = 1;
  2394  001A3C  8E94               	bsf	148,7,c	;volatile
  2395                           
  2396                           ;UART.c: 9:     TRISCbits.TRISC6 = 0;
  2397  001A3E  9C94               	bcf	148,6,c	;volatile
  2398  001A40                     
  2399                           ;UART.c: 10:     TXSTA = 0b00100110;
  2400  001A40  0E26               	movlw	38
  2401  001A42  6EAC               	movwf	172,c	;volatile
  2402                           
  2403                           ;UART.c: 11:     RCSTA = 0b10010000;
  2404  001A44  0E90               	movlw	144
  2405  001A46  6EAB               	movwf	171,c	;volatile
  2406                           
  2407                           ;UART.c: 13:     SPBRG = 25;
  2408  001A48  0E19               	movlw	25
  2409  001A4A  6EAF               	movwf	175,c	;volatile
  2410  001A4C  0012               	return		;funcret
  2411  001A4E                     __end_of_INIT_UART:
  2412                           	opt callstack 0
  2413                           
  2414 ;; *************** function _INIT_STEP *****************
  2415 ;; Defined at:
  2416 ;;		line 6 in file "STEP_MOTOR.c"
  2417 ;; Parameters:    Size  Location     Type
  2418 ;;		None
  2419 ;; Auto vars:     Size  Location     Type
  2420 ;;		None
  2421 ;; Return value:  Size  Location     Type
  2422 ;;                  1    wreg      void 
  2423 ;; Registers used:
  2424 ;;		None
  2425 ;; Tracked objects:
  2426 ;;		On entry : 0/0
  2427 ;;		On exit  : 0/0
  2428 ;;		Unchanged: 0/0
  2429 ;; Data sizes:     COMRAM   BANK0   BANK1   BANK2   BANK3   BANK4   BANK5   BANK6   BANK7   BANK8   BANK9  BANK10  BANK1
      +1  BANK12
  2430 ;;      Params:         0       0       0       0       0       0       0       0       0       0       0       0       
      +0       0
  2431 ;;      Locals:         0       0       0       0       0       0       0       0       0       0       0       0       
      +0       0
  2432 ;;      Temps:          0       0       0       0       0       0       0       0       0       0       0       0       
      +0       0
  2433 ;;      Totals:         0       0       0       0       0       0       0       0       0       0       0       0       
      +0       0
  2434 ;;Total ram usage:        0 bytes
  2435 ;; Hardware stack levels used:    1
  2436 ;; Hardware stack levels required when called:    3
  2437 ;; This function calls:
  2438 ;;		Nothing
  2439 ;; This function is called by:
  2440 ;;		_main
  2441 ;; This function uses a non-reentrant model
  2442 ;;
  2443                           
  2444                           	psect	text16
  2445  001A4E                     __ptext16:
  2446                           	opt callstack 0
  2447  001A4E                     _INIT_STEP:
  2448                           	opt callstack 27
  2449  001A4E                     
  2450                           ;STEP_MOTOR.c: 7:     TRISCbits.RC1 = 0;
  2451  001A4E  9294               	bcf	148,1,c	;volatile
  2452                           
  2453                           ;STEP_MOTOR.c: 8:     TRISDbits.RD1 = 0;
  2454  001A50  9295               	bcf	149,1,c	;volatile
  2455                           
  2456                           ;STEP_MOTOR.c: 9:     TRISDbits.RD0 = 0;
  2457  001A52  9095               	bcf	149,0,c	;volatile
  2458                           
  2459                           ;STEP_MOTOR.c: 10:     TRISCbits.RC2 = 0;
  2460  001A54  9494               	bcf	148,2,c	;volatile
  2461                           
  2462                           ;STEP_MOTOR.c: 11:     TRISDbits.RD3 = 0;
  2463  001A56  9695               	bcf	149,3,c	;volatile
  2464                           
  2465                           ;STEP_MOTOR.c: 12:     TRISDbits.RD2 = 0;
  2466  001A58  9495               	bcf	149,2,c	;volatile
  2467  001A5A  0012               	return		;funcret
  2468  001A5C                     __end_of_INIT_STEP:
  2469                           	opt callstack 0
  2470                           
  2471 ;; *************** function _INIT_LEDS *****************
  2472 ;; Defined at:
  2473 ;;		line 5 in file "LEDS.c"
  2474 ;; Parameters:    Size  Location     Type
  2475 ;;		None
  2476 ;; Auto vars:     Size  Location     Type
  2477 ;;		None
  2478 ;; Return value:  Size  Location     Type
  2479 ;;                  1    wreg      void 
  2480 ;; Registers used:
  2481 ;;		None
  2482 ;; Tracked objects:
  2483 ;;		On entry : 0/0
  2484 ;;		On exit  : 0/0
  2485 ;;		Unchanged: 0/0
  2486 ;; Data sizes:     COMRAM   BANK0   BANK1   BANK2   BANK3   BANK4   BANK5   BANK6   BANK7   BANK8   BANK9  BANK10  BANK1
      +1  BANK12
  2487 ;;      Params:         0       0       0       0       0       0       0       0       0       0       0       0       
      +0       0
  2488 ;;      Locals:         0       0       0       0       0       0       0       0       0       0       0       0       
      +0       0
  2489 ;;      Temps:          0       0       0       0       0       0       0       0       0       0       0       0       
      +0       0
  2490 ;;      Totals:         0       0       0       0       0       0       0       0       0       0       0       0       
      +0       0
  2491 ;;Total ram usage:        0 bytes
  2492 ;; Hardware stack levels used:    1
  2493 ;; Hardware stack levels required when called:    3
  2494 ;; This function calls:
  2495 ;;		Nothing
  2496 ;; This function is called by:
  2497 ;;		_main
  2498 ;; This function uses a non-reentrant model
  2499 ;;
  2500                           
  2501                           	psect	text17
  2502  001A8A                     __ptext17:
  2503                           	opt callstack 0
  2504  001A8A                     _INIT_LEDS:
  2505                           	opt callstack 27
  2506  001A8A  9A93               	bcf	147,5,c	;volatile
  2507  001A8C  9C93               	bcf	147,6,c	;volatile
  2508  001A8E  9E93               	bcf	147,7,c	;volatile
  2509  001A90  0012               	return		;funcret
  2510  001A92                     __end_of_INIT_LEDS:
  2511                           	opt callstack 0
  2512                           
  2513 ;; *************** function _INIT_INT *****************
  2514 ;; Defined at:
  2515 ;;		line 224 in file "SPARC_4585.c"
  2516 ;; Parameters:    Size  Location     Type
  2517 ;;		None
  2518 ;; Auto vars:     Size  Location     Type
  2519 ;;		None
  2520 ;; Return value:  Size  Location     Type
  2521 ;;                  1    wreg      void 
  2522 ;; Registers used:
  2523 ;;		None
  2524 ;; Tracked objects:
  2525 ;;		On entry : 0/0
  2526 ;;		On exit  : 0/0
  2527 ;;		Unchanged: 0/0
  2528 ;; Data sizes:     COMRAM   BANK0   BANK1   BANK2   BANK3   BANK4   BANK5   BANK6   BANK7   BANK8   BANK9  BANK10  BANK1
      +1  BANK12
  2529 ;;      Params:         0       0       0       0       0       0       0       0       0       0       0       0       
      +0       0
  2530 ;;      Locals:         0       0       0       0       0       0       0       0       0       0       0       0       
      +0       0
  2531 ;;      Temps:          0       0       0       0       0       0       0       0       0       0       0       0       
      +0       0
  2532 ;;      Totals:         0       0       0       0       0       0       0       0       0       0       0       0       
      +0       0
  2533 ;;Total ram usage:        0 bytes
  2534 ;; Hardware stack levels used:    1
  2535 ;; Hardware stack levels required when called:    3
  2536 ;; This function calls:
  2537 ;;		Nothing
  2538 ;; This function is called by:
  2539 ;;		_main
  2540 ;; This function uses a non-reentrant model
  2541 ;;
  2542                           
  2543                           	psect	text18
  2544  001918                     __ptext18:
  2545                           	opt callstack 0
  2546  001918                     _INIT_INT:
  2547                           	opt callstack 27
  2548  001918                     
  2549                           ;SPARC_4585.c: 225:     TRISBbits.RB0 = 1;
  2550  001918  8093               	bsf	147,0,c	;volatile
  2551                           
  2552                           ;SPARC_4585.c: 226:     TRISBbits.RB1 = 1;
  2553  00191A  8293               	bsf	147,1,c	;volatile
  2554                           
  2555                           ;SPARC_4585.c: 227:     TRISBbits.RB2 = 1;
  2556  00191C  8493               	bsf	147,2,c	;volatile
  2557                           
  2558                           ;SPARC_4585.c: 228:     RCONbits.IPEN = 0;
  2559  00191E  9ED0               	bcf	208,7,c	;volatile
  2560                           
  2561                           ;SPARC_4585.c: 229:     INTCONbits.GIE = 1;
  2562  001920  8EF2               	bsf	242,7,c	;volatile
  2563                           
  2564                           ;SPARC_4585.c: 230:     INTCONbits.PEIE = 0;
  2565  001922  9CF2               	bcf	242,6,c	;volatile
  2566                           
  2567                           ;SPARC_4585.c: 231:     INTCONbits.INT0IE = 1;
  2568  001924  88F2               	bsf	242,4,c	;volatile
  2569                           
  2570                           ;SPARC_4585.c: 232:     INTCONbits.INT0IF = 0;
  2571  001926  92F2               	bcf	242,1,c	;volatile
  2572                           
  2573                           ;SPARC_4585.c: 233:     INTCON2bits.INTEDG0 = 1;
  2574  001928  8CF1               	bsf	241,6,c	;volatile
  2575                           
  2576                           ;SPARC_4585.c: 234:     INTCON2bits.INTEDG1 = 1;
  2577  00192A  8AF1               	bsf	241,5,c	;volatile
  2578                           
  2579                           ;SPARC_4585.c: 235:     INTCON2bits.INTEDG2 = 1;
  2580  00192C  88F1               	bsf	241,4,c	;volatile
  2581                           
  2582                           ;SPARC_4585.c: 236:     INTCON3bits.INT2IP = 1;
  2583  00192E  8EF0               	bsf	240,7,c	;volatile
  2584                           
  2585                           ;SPARC_4585.c: 237:     INTCON3bits.INT1IP = 1;
  2586  001930  8CF0               	bsf	240,6,c	;volatile
  2587                           
  2588                           ;SPARC_4585.c: 238:     INTCON3bits.INT2IE = 1;
  2589  001932  88F0               	bsf	240,4,c	;volatile
  2590                           
  2591                           ;SPARC_4585.c: 239:     INTCON3bits.INT1IE = 1;
  2592  001934  86F0               	bsf	240,3,c	;volatile
  2593                           
  2594                           ;SPARC_4585.c: 240:     INTCON3bits.INT2IF = 0;
  2595  001936  92F0               	bcf	240,1,c	;volatile
  2596                           
  2597                           ;SPARC_4585.c: 241:     INTCON3bits.INT1IF = 0;
  2598  001938  90F0               	bcf	240,0,c	;volatile
  2599  00193A  0012               	return		;funcret
  2600  00193C                     __end_of_INIT_INT:
  2601                           	opt callstack 0
  2602                           
  2603 ;; *************** function _INIT_GPIO *****************
  2604 ;; Defined at:
  2605 ;;		line 5 in file "GPIO.c"
  2606 ;; Parameters:    Size  Location     Type
  2607 ;;		None
  2608 ;; Auto vars:     Size  Location     Type
  2609 ;;		None
  2610 ;; Return value:  Size  Location     Type
  2611 ;;                  1    wreg      void 
  2612 ;; Registers used:
  2613 ;;		wreg, status,2
  2614 ;; Tracked objects:
  2615 ;;		On entry : 0/0
  2616 ;;		On exit  : 0/0
  2617 ;;		Unchanged: 0/0
  2618 ;; Data sizes:     COMRAM   BANK0   BANK1   BANK2   BANK3   BANK4   BANK5   BANK6   BANK7   BANK8   BANK9  BANK10  BANK1
      +1  BANK12
  2619 ;;      Params:         0       0       0       0       0       0       0       0       0       0       0       0       
      +0       0
  2620 ;;      Locals:         0       0       0       0       0       0       0       0       0       0       0       0       
      +0       0
  2621 ;;      Temps:          0       0       0       0       0       0       0       0       0       0       0       0       
      +0       0
  2622 ;;      Totals:         0       0       0       0       0       0       0       0       0       0       0       0       
      +0       0
  2623 ;;Total ram usage:        0 bytes
  2624 ;; Hardware stack levels used:    1
  2625 ;; Hardware stack levels required when called:    3
  2626 ;; This function calls:
  2627 ;;		Nothing
  2628 ;; This function is called by:
  2629 ;;		_main
  2630 ;; This function uses a non-reentrant model
  2631 ;;
  2632                           
  2633                           	psect	text19
  2634  001A5C                     __ptext19:
  2635                           	opt callstack 0
  2636  001A5C                     _INIT_GPIO:
  2637                           	opt callstack 27
  2638  001A5C                     
  2639                           ;GPIO.c: 7:     OSCCON = 0X60;
  2640  001A5C  0E60               	movlw	96
  2641  001A5E  6ED3               	movwf	211,c	;volatile
  2642  001A60                     
  2643                           ;GPIO.c: 9:     CMCON = 0XFF;
  2644  001A60  68B4               	setf	180,c	;volatile
  2645  001A62                     
  2646                           ;GPIO.c: 10:     CVRCONbits.CVREN = 0;
  2647  001A62  9EB5               	bcf	181,7,c	;volatile
  2648                           
  2649                           ;GPIO.c: 11:     ADCON1 = 0X0F;
  2650  001A64  0E0F               	movlw	15
  2651  001A66  6EC1               	movwf	193,c	;volatile
  2652  001A68  0012               	return		;funcret
  2653  001A6A                     __end_of_INIT_GPIO:
  2654                           	opt callstack 0
  2655                           
  2656 ;; *************** function _INIT_DC *****************
  2657 ;; Defined at:
  2658 ;;		line 5 in file "MOTORES_DC.c"
  2659 ;; Parameters:    Size  Location     Type
  2660 ;;		None
  2661 ;; Auto vars:     Size  Location     Type
  2662 ;;		None
  2663 ;; Return value:  Size  Location     Type
  2664 ;;                  1    wreg      void 
  2665 ;; Registers used:
  2666 ;;		None
  2667 ;; Tracked objects:
  2668 ;;		On entry : 0/0
  2669 ;;		On exit  : 0/0
  2670 ;;		Unchanged: 0/0
  2671 ;; Data sizes:     COMRAM   BANK0   BANK1   BANK2   BANK3   BANK4   BANK5   BANK6   BANK7   BANK8   BANK9  BANK10  BANK1
      +1  BANK12
  2672 ;;      Params:         0       0       0       0       0       0       0       0       0       0       0       0       
      +0       0
  2673 ;;      Locals:         0       0       0       0       0       0       0       0       0       0       0       0       
      +0       0
  2674 ;;      Temps:          0       0       0       0       0       0       0       0       0       0       0       0       
      +0       0
  2675 ;;      Totals:         0       0       0       0       0       0       0       0       0       0       0       0       
      +0       0
  2676 ;;Total ram usage:        0 bytes
  2677 ;; Hardware stack levels used:    1
  2678 ;; Hardware stack levels required when called:    3
  2679 ;; This function calls:
  2680 ;;		Nothing
  2681 ;; This function is called by:
  2682 ;;		_main
  2683 ;; This function uses a non-reentrant model
  2684 ;;
  2685                           
  2686                           	psect	text20
  2687  001A92                     __ptext20:
  2688                           	opt callstack 0
  2689  001A92                     _INIT_DC:
  2690                           	opt callstack 27
  2691  001A92  9895               	bcf	149,4,c	;volatile
  2692  001A94  9A95               	bcf	149,5,c	;volatile
  2693  001A96  9C95               	bcf	149,6,c	;volatile
  2694  001A98  0012               	return		;funcret
  2695  001A9A                     __end_of_INIT_DC:
  2696                           	opt callstack 0
  2697                           
  2698 ;; *************** function _INIT_BUTTONS *****************
  2699 ;; Defined at:
  2700 ;;		line 6 in file "BOTONES.c"
  2701 ;; Parameters:    Size  Location     Type
  2702 ;;		None
  2703 ;; Auto vars:     Size  Location     Type
  2704 ;;		None
  2705 ;; Return value:  Size  Location     Type
  2706 ;;                  1    wreg      void 
  2707 ;; Registers used:
  2708 ;;		None
  2709 ;; Tracked objects:
  2710 ;;		On entry : 0/0
  2711 ;;		On exit  : 0/0
  2712 ;;		Unchanged: 0/0
  2713 ;; Data sizes:     COMRAM   BANK0   BANK1   BANK2   BANK3   BANK4   BANK5   BANK6   BANK7   BANK8   BANK9  BANK10  BANK1
      +1  BANK12
  2714 ;;      Params:         0       0       0       0       0       0       0       0       0       0       0       0       
      +0       0
  2715 ;;      Locals:         0       0       0       0       0       0       0       0       0       0       0       0       
      +0       0
  2716 ;;      Temps:          0       0       0       0       0       0       0       0       0       0       0       0       
      +0       0
  2717 ;;      Totals:         0       0       0       0       0       0       0       0       0       0       0       0       
      +0       0
  2718 ;;Total ram usage:        0 bytes
  2719 ;; Hardware stack levels used:    1
  2720 ;; Hardware stack levels required when called:    3
  2721 ;; This function calls:
  2722 ;;		Nothing
  2723 ;; This function is called by:
  2724 ;;		_main
  2725 ;; This function uses a non-reentrant model
  2726 ;;
  2727                           
  2728                           	psect	text21
  2729  001A9A                     __ptext21:
  2730                           	opt callstack 0
  2731  001A9A                     _INIT_BUTTONS:
  2732                           	opt callstack 27
  2733  001A9A  8894               	bsf	148,4,c	;volatile
  2734  001A9C  8A94               	bsf	148,5,c	;volatile
  2735  001A9E  8A92               	bsf	146,5,c	;volatile
  2736  001AA0  0012               	return		;funcret
  2737  001AA2                     __end_of_INIT_BUTTONS:
  2738                           	opt callstack 0
  2739                           
  2740 ;; *************** function _ERROR_NO_COMANDO *****************
  2741 ;; Defined at:
  2742 ;;		line 6 in file "MENSAJES.c"
  2743 ;; Parameters:    Size  Location     Type
  2744 ;;		None
  2745 ;; Auto vars:     Size  Location     Type
  2746 ;;		None
  2747 ;; Return value:  Size  Location     Type
  2748 ;;                  1    wreg      void 
  2749 ;; Registers used:
  2750 ;;		wreg, fsr0l, fsr0h, status,2, status,0, tblptrl, tblptrh, tblptru, cstack
  2751 ;; Tracked objects:
  2752 ;;		On entry : 0/0
  2753 ;;		On exit  : 0/0
  2754 ;;		Unchanged: 0/0
  2755 ;; Data sizes:     COMRAM   BANK0   BANK1   BANK2   BANK3   BANK4   BANK5   BANK6   BANK7   BANK8   BANK9  BANK10  BANK1
      +1  BANK12
  2756 ;;      Params:         0       0       0       0       0       0       0       0       0       0       0       0       
      +0       0
  2757 ;;      Locals:         0       0       0       0       0       0       0       0       0       0       0       0       
      +0       0
  2758 ;;      Temps:          0       0       0       0       0       0       0       0       0       0       0       0       
      +0       0
  2759 ;;      Totals:         0       0       0       0       0       0       0       0       0       0       0       0       
      +0       0
  2760 ;;Total ram usage:        0 bytes
  2761 ;; Hardware stack levels used:    1
  2762 ;; Hardware stack levels required when called:    5
  2763 ;; This function calls:
  2764 ;;		_SEND_STRING
  2765 ;;		_SEND_UART
  2766 ;; This function is called by:
  2767 ;;		_main
  2768 ;; This function uses a non-reentrant model
  2769 ;;
  2770                           
  2771                           	psect	text22
  2772  0019DC                     __ptext22:
  2773                           	opt callstack 0
  2774  0019DC                     _ERROR_NO_COMANDO:
  2775                           	opt callstack 25
  2776  0019DC                     
  2777                           ;MENSAJES.c: 7:     SEND_UART(10);
  2778  0019DC  0E0A               	movlw	10
  2779  0019DE  EC08  F00D         	call	_SEND_UART
  2780  0019E2                     
  2781                           ;MENSAJES.c: 8:     SEND_STRING("Comando no reconocido");
  2782  0019E2  0E1E               	movlw	low STR_5
  2783  0019E4  6E0F               	movwf	SEND_STRING@PointString^0,c
  2784  0019E6  0E0D               	movlw	high STR_5
  2785  0019E8  6E10               	movwf	(SEND_STRING@PointString+1)^0,c
  2786  0019EA  EC19  F00A         	call	_SEND_STRING	;wreg free
  2787  0019EE                     
  2788                           ;MENSAJES.c: 9:     SEND_UART(10);
  2789  0019EE  0E0A               	movlw	10
  2790  0019F0  EC08  F00D         	call	_SEND_UART
  2791  0019F4  0012               	return		;funcret
  2792  0019F6                     __end_of_ERROR_NO_COMANDO:
  2793                           	opt callstack 0
  2794                           
  2795 ;; *************** function _ERROR_LEDS *****************
  2796 ;; Defined at:
  2797 ;;		line 17 in file "LEDS.c"
  2798 ;; Parameters:    Size  Location     Type
  2799 ;;		None
  2800 ;; Auto vars:     Size  Location     Type
  2801 ;;		None
  2802 ;; Return value:  Size  Location     Type
  2803 ;;                  1    wreg      void 
  2804 ;; Registers used:
  2805 ;;		None
  2806 ;; Tracked objects:
  2807 ;;		On entry : 0/0
  2808 ;;		On exit  : 0/0
  2809 ;;		Unchanged: 0/0
  2810 ;; Data sizes:     COMRAM   BANK0   BANK1   BANK2   BANK3   BANK4   BANK5   BANK6   BANK7   BANK8   BANK9  BANK10  BANK1
      +1  BANK12
  2811 ;;      Params:         0       0       0       0       0       0       0       0       0       0       0       0       
      +0       0
  2812 ;;      Locals:         0       0       0       0       0       0       0       0       0       0       0       0       
      +0       0
  2813 ;;      Temps:          0       0       0       0       0       0       0       0       0       0       0       0       
      +0       0
  2814 ;;      Totals:         0       0       0       0       0       0       0       0       0       0       0       0       
      +0       0
  2815 ;;Total ram usage:        0 bytes
  2816 ;; Hardware stack levels used:    1
  2817 ;; Hardware stack levels required when called:    3
  2818 ;; This function calls:
  2819 ;;		Nothing
  2820 ;; This function is called by:
  2821 ;;		_main
  2822 ;; This function uses a non-reentrant model
  2823 ;;
  2824                           
  2825                           	psect	text23
  2826  001AA2                     __ptext23:
  2827                           	opt callstack 0
  2828  001AA2                     _ERROR_LEDS:
  2829                           	opt callstack 27
  2830  001AA2  8A8A               	bsf	138,5,c	;volatile
  2831  001AA4  9C8A               	bcf	138,6,c	;volatile
  2832  001AA6  9E8A               	bcf	138,7,c	;volatile
  2833  001AA8  0012               	return		;funcret
  2834  001AAA                     __end_of_ERROR_LEDS:
  2835                           	opt callstack 0
  2836                           
  2837 ;; *************** function _ERROR_FUERA_LIMITE *****************
  2838 ;; Defined at:
  2839 ;;		line 12 in file "MENSAJES.c"
  2840 ;; Parameters:    Size  Location     Type
  2841 ;;		None
  2842 ;; Auto vars:     Size  Location     Type
  2843 ;;		None
  2844 ;; Return value:  Size  Location     Type
  2845 ;;                  1    wreg      void 
  2846 ;; Registers used:
  2847 ;;		wreg, fsr0l, fsr0h, status,2, status,0, tblptrl, tblptrh, tblptru, cstack
  2848 ;; Tracked objects:
  2849 ;;		On entry : 0/0
  2850 ;;		On exit  : 0/0
  2851 ;;		Unchanged: 0/0
  2852 ;; Data sizes:     COMRAM   BANK0   BANK1   BANK2   BANK3   BANK4   BANK5   BANK6   BANK7   BANK8   BANK9  BANK10  BANK1
      +1  BANK12
  2853 ;;      Params:         0       0       0       0       0       0       0       0       0       0       0       0       
      +0       0
  2854 ;;      Locals:         0       0       0       0       0       0       0       0       0       0       0       0       
      +0       0
  2855 ;;      Temps:          0       0       0       0       0       0       0       0       0       0       0       0       
      +0       0
  2856 ;;      Totals:         0       0       0       0       0       0       0       0       0       0       0       0       
      +0       0
  2857 ;;Total ram usage:        0 bytes
  2858 ;; Hardware stack levels used:    1
  2859 ;; Hardware stack levels required when called:    5
  2860 ;; This function calls:
  2861 ;;		_SEND_STRING
  2862 ;;		_SEND_UART
  2863 ;; This function is called by:
  2864 ;;		_main
  2865 ;; This function uses a non-reentrant model
  2866 ;;
  2867                           
  2868                           	psect	text24
  2869  0019F6                     __ptext24:
  2870                           	opt callstack 0
  2871  0019F6                     _ERROR_FUERA_LIMITE:
  2872                           	opt callstack 25
  2873  0019F6                     
  2874                           ;MENSAJES.c: 13:     SEND_UART(10);
  2875  0019F6  0E0A               	movlw	10
  2876  0019F8  EC08  F00D         	call	_SEND_UART
  2877  0019FC                     
  2878                           ;MENSAJES.c: 14:     SEND_STRING("coordenadas fuera del limite");
  2879  0019FC  0E01               	movlw	low STR_6
  2880  0019FE  6E0F               	movwf	SEND_STRING@PointString^0,c
  2881  001A00  0E0D               	movlw	high STR_6
  2882  001A02  6E10               	movwf	(SEND_STRING@PointString+1)^0,c
  2883  001A04  EC19  F00A         	call	_SEND_STRING	;wreg free
  2884  001A08                     
  2885                           ;MENSAJES.c: 15:     SEND_UART(10);
  2886  001A08  0E0A               	movlw	10
  2887  001A0A  EC08  F00D         	call	_SEND_UART
  2888  001A0E  0012               	return		;funcret
  2889  001A10                     __end_of_ERROR_FUERA_LIMITE:
  2890                           	opt callstack 0
  2891                           
  2892 ;; *************** function _SEND_STRING *****************
  2893 ;; Defined at:
  2894 ;;		line 5 in file "SERIAL.c"
  2895 ;; Parameters:    Size  Location     Type
  2896 ;;  PointString     2   14[COMRAM] PTR unsigned char 
  2897 ;;		 -> STR_8(11), STR_7(19), STR_6(29), STR_5(22), 
  2898 ;;		 -> STR_4(15), STR_3(15), STR_2(15), main@Instruccion(6), 
  2899 ;;		 -> STR_1(15), 
  2900 ;; Auto vars:     Size  Location     Type
  2901 ;;  i               1   19[COMRAM] unsigned char 
  2902 ;; Return value:  Size  Location     Type
  2903 ;;                  1    wreg      void 
  2904 ;; Registers used:
  2905 ;;		wreg, fsr0l, fsr0h, status,2, status,0, tblptrl, tblptrh, tblptru, cstack
  2906 ;; Tracked objects:
  2907 ;;		On entry : 0/0
  2908 ;;		On exit  : 0/0
  2909 ;;		Unchanged: 0/0
  2910 ;; Data sizes:     COMRAM   BANK0   BANK1   BANK2   BANK3   BANK4   BANK5   BANK6   BANK7   BANK8   BANK9  BANK10  BANK1
      +1  BANK12
  2911 ;;      Params:         2       0       0       0       0       0       0       0       0       0       0       0       
      +0       0
  2912 ;;      Locals:         1       0       0       0       0       0       0       0       0       0       0       0       
      +0       0
  2913 ;;      Temps:          3       0       0       0       0       0       0       0       0       0       0       0       
      +0       0
  2914 ;;      Totals:         6       0       0       0       0       0       0       0       0       0       0       0       
      +0       0
  2915 ;;Total ram usage:        6 bytes
  2916 ;; Hardware stack levels used:    1
  2917 ;; Hardware stack levels required when called:    4
  2918 ;; This function calls:
  2919 ;;		_SEND_UART
  2920 ;; This function is called by:
  2921 ;;		_main
  2922 ;;		_ERROR_NO_COMANDO
  2923 ;;		_ERROR_FUERA_LIMITE
  2924 ;;		_TERMINADO
  2925 ;;		_PROCESO
  2926 ;; This function uses a non-reentrant model
  2927 ;;
  2928                           
  2929                           	psect	text25
  2930  001432                     __ptext25:
  2931                           	opt callstack 0
  2932  001432                     _SEND_STRING:
  2933                           	opt callstack 25
  2934  001432                     
  2935                           ;SERIAL.c: 6:     for (unsigned char i = 0; i < 255; i++) {
  2936  001432  0E00               	movlw	0
  2937  001434  6E14               	movwf	SEND_STRING@i^0,c
  2938  001436                     l1628:
  2939                           
  2940                           ;SERIAL.c: 7:         if (PointString[i] < 32 || PointString[i] > 122 ) {
  2941  001436  5014               	movf	SEND_STRING@i^0,w,c
  2942  001438  240F               	addwf	SEND_STRING@PointString^0,w,c
  2943  00143A  6E11               	movwf	??_SEND_STRING^0,c
  2944  00143C  0E00               	movlw	0
  2945  00143E  2010               	addwfc	(SEND_STRING@PointString+1)^0,w,c
  2946  001440  6E12               	movwf	(??_SEND_STRING+1)^0,c
  2947  001442  C011  FFF6         	movff	??_SEND_STRING,tblptrl
  2948  001446  C012  FFF7         	movff	??_SEND_STRING+1,tblptrh
  2949  00144A  6AF8               	clrf	tblptru,c
  2950  00144C  0E0C               	movlw	(high __ramtop+-1)
  2951  00144E  64F7               	cpfsgt	tblptrh,c
  2952  001450  D003               	bra	u757
  2953  001452  0008               	tblrd		*
  2954  001454  50F5               	movf	tablat,w,c
  2955  001456  D005               	bra	u750
  2956  001458                     u757:
  2957  001458  CFF6 FFE9          	movff	tblptrl,fsr0l
  2958  00145C  CFF7 FFEA          	movff	tblptrh,fsr0h
  2959  001460  50EF               	movf	indf0,w,c
  2960  001462                     u750:
  2961  001462  6E13               	movwf	(??_SEND_STRING+2)^0,c
  2962  001464  0E1F               	movlw	31
  2963  001466  6413               	cpfsgt	(??_SEND_STRING+2)^0,c
  2964  001468  EF38  F00A         	goto	u761
  2965  00146C  EF3A  F00A         	goto	u760
  2966  001470                     u761:
  2967  001470  EF7C  F00A         	goto	l98
  2968  001474                     u760:
  2969  001474  5014               	movf	SEND_STRING@i^0,w,c
  2970  001476  240F               	addwf	SEND_STRING@PointString^0,w,c
  2971  001478  6E11               	movwf	??_SEND_STRING^0,c
  2972  00147A  0E00               	movlw	0
  2973  00147C  2010               	addwfc	(SEND_STRING@PointString+1)^0,w,c
  2974  00147E  6E12               	movwf	(??_SEND_STRING+1)^0,c
  2975  001480  C011  FFF6         	movff	??_SEND_STRING,tblptrl
  2976  001484  C012  FFF7         	movff	??_SEND_STRING+1,tblptrh
  2977  001488  6AF8               	clrf	tblptru,c
  2978  00148A  0E0C               	movlw	(high __ramtop+-1)
  2979  00148C  64F7               	cpfsgt	tblptrh,c
  2980  00148E  D003               	bra	u777
  2981  001490  0008               	tblrd		*
  2982  001492  50F5               	movf	tablat,w,c
  2983  001494  D005               	bra	u770
  2984  001496                     u777:
  2985  001496  CFF6 FFE9          	movff	tblptrl,fsr0l
  2986  00149A  CFF7 FFEA          	movff	tblptrh,fsr0h
  2987  00149E  50EF               	movf	indf0,w,c
  2988  0014A0                     u770:
  2989  0014A0  6E13               	movwf	(??_SEND_STRING+2)^0,c
  2990  0014A2  0E7A               	movlw	122
  2991  0014A4  6413               	cpfsgt	(??_SEND_STRING+2)^0,c
  2992  0014A6  EF57  F00A         	goto	u781
  2993  0014AA  EF59  F00A         	goto	u780
  2994  0014AE                     u781:
  2995  0014AE  EF5B  F00A         	goto	l1632
  2996  0014B2                     u780:
  2997  0014B2  EF7C  F00A         	goto	l98
  2998  0014B6                     l1632:
  2999                           
  3000                           ;SERIAL.c: 10:         SEND_UART(PointString[i]);
  3001  0014B6  5014               	movf	SEND_STRING@i^0,w,c
  3002  0014B8  240F               	addwf	SEND_STRING@PointString^0,w,c
  3003  0014BA  6E11               	movwf	??_SEND_STRING^0,c
  3004  0014BC  0E00               	movlw	0
  3005  0014BE  2010               	addwfc	(SEND_STRING@PointString+1)^0,w,c
  3006  0014C0  6E12               	movwf	(??_SEND_STRING+1)^0,c
  3007  0014C2  C011  FFF6         	movff	??_SEND_STRING,tblptrl
  3008  0014C6  C012  FFF7         	movff	??_SEND_STRING+1,tblptrh
  3009  0014CA  6AF8               	clrf	tblptru,c
  3010  0014CC  0E0C               	movlw	(high __ramtop+-1)
  3011  0014CE  64F7               	cpfsgt	tblptrh,c
  3012  0014D0  D003               	bra	u797
  3013  0014D2  0008               	tblrd		*
  3014  0014D4  50F5               	movf	tablat,w,c
  3015  0014D6  D005               	bra	u790
  3016  0014D8                     u797:
  3017  0014D8  CFF6 FFE9          	movff	tblptrl,fsr0l
  3018  0014DC  CFF7 FFEA          	movff	tblptrh,fsr0h
  3019  0014E0  50EF               	movf	indf0,w,c
  3020  0014E2                     u790:
  3021  0014E2  EC08  F00D         	call	_SEND_UART
  3022  0014E6                     
  3023                           ;SERIAL.c: 11:     }
  3024  0014E6  2A14               	incf	SEND_STRING@i^0,f,c
  3025  0014E8  2814               	incf	SEND_STRING@i^0,w,c
  3026  0014EA  A4D8               	btfss	status,2,c
  3027  0014EC  EF7A  F00A         	goto	u801
  3028  0014F0  EF7C  F00A         	goto	u800
  3029  0014F4                     u801:
  3030  0014F4  EF1B  F00A         	goto	l1628
  3031  0014F8                     u800:
  3032  0014F8                     l98:
  3033  0014F8  0012               	return		;funcret
  3034  0014FA                     __end_of_SEND_STRING:
  3035                           	opt callstack 0
  3036                           
  3037 ;; *************** function _SEND_UART *****************
  3038 ;; Defined at:
  3039 ;;		line 16 in file "UART.c"
  3040 ;; Parameters:    Size  Location     Type
  3041 ;;  TX_Data         1    wreg     unsigned char 
  3042 ;; Auto vars:     Size  Location     Type
  3043 ;;  TX_Data         1   13[COMRAM] unsigned char 
  3044 ;; Return value:  Size  Location     Type
  3045 ;;                  1    wreg      void 
  3046 ;; Registers used:
  3047 ;;		wreg
  3048 ;; Tracked objects:
  3049 ;;		On entry : 0/0
  3050 ;;		On exit  : 0/0
  3051 ;;		Unchanged: 0/0
  3052 ;; Data sizes:     COMRAM   BANK0   BANK1   BANK2   BANK3   BANK4   BANK5   BANK6   BANK7   BANK8   BANK9  BANK10  BANK1
      +1  BANK12
  3053 ;;      Params:         0       0       0       0       0       0       0       0       0       0       0       0       
      +0       0
  3054 ;;      Locals:         1       0       0       0       0       0       0       0       0       0       0       0       
      +0       0
  3055 ;;      Temps:          0       0       0       0       0       0       0       0       0       0       0       0       
      +0       0
  3056 ;;      Totals:         1       0       0       0       0       0       0       0       0       0       0       0       
      +0       0
  3057 ;;Total ram usage:        1 bytes
  3058 ;; Hardware stack levels used:    1
  3059 ;; Hardware stack levels required when called:    3
  3060 ;; This function calls:
  3061 ;;		Nothing
  3062 ;; This function is called by:
  3063 ;;		_SEND_STRING
  3064 ;;		_ERROR_NO_COMANDO
  3065 ;;		_ERROR_FUERA_LIMITE
  3066 ;;		_TERMINADO
  3067 ;;		_PROCESO
  3068 ;; This function uses a non-reentrant model
  3069 ;;
  3070                           
  3071                           	psect	text26
  3072  001A10                     __ptext26:
  3073                           	opt callstack 0
  3074  001A10                     _SEND_UART:
  3075                           	opt callstack 26
  3076                           
  3077                           ;incstack = 0
  3078                           ;SEND_UART@TX_Data stored from wreg
  3079  001A10  6E0E               	movwf	SEND_UART@TX_Data^0,c
  3080  001A12                     l177:
  3081                           
  3082                           ;UART.c: 17:     while (TXSTAbits.TRMT == 0) {
  3083  001A12  A2AC               	btfss	172,1,c	;volatile
  3084  001A14  EF0E  F00D         	goto	u11
  3085  001A18  EF10  F00D         	goto	u10
  3086  001A1C                     u11:
  3087  001A1C  EF09  F00D         	goto	l177
  3088  001A20                     u10:
  3089  001A20                     
  3090                           ;UART.c: 19:     TXREG = TX_Data;
  3091  001A20  C00E  FFAD         	movff	SEND_UART@TX_Data,4013	;volatile
  3092  001A24  0012               	return		;funcret
  3093  001A26                     __end_of_SEND_UART:
  3094                           	opt callstack 0
  3095                           
  3096 ;; *************** function _DOWN_PLATFORM *****************
  3097 ;; Defined at:
  3098 ;;		line 20 in file "BOTONES.c"
  3099 ;; Parameters:    Size  Location     Type
  3100 ;;		None
  3101 ;; Auto vars:     Size  Location     Type
  3102 ;;		None
  3103 ;; Return value:  Size  Location     Type
  3104 ;;                  1    wreg      void 
  3105 ;; Registers used:
  3106 ;;		cstack
  3107 ;; Tracked objects:
  3108 ;;		On entry : 0/0
  3109 ;;		On exit  : 0/0
  3110 ;;		Unchanged: 0/0
  3111 ;; Data sizes:     COMRAM   BANK0   BANK1   BANK2   BANK3   BANK4   BANK5   BANK6   BANK7   BANK8   BANK9  BANK10  BANK1
      +1  BANK12
  3112 ;;      Params:         0       0       0       0       0       0       0       0       0       0       0       0       
      +0       0
  3113 ;;      Locals:         0       0       0       0       0       0       0       0       0       0       0       0       
      +0       0
  3114 ;;      Temps:          0       0       0       0       0       0       0       0       0       0       0       0       
      +0       0
  3115 ;;      Totals:         0       0       0       0       0       0       0       0       0       0       0       0       
      +0       0
  3116 ;;Total ram usage:        0 bytes
  3117 ;; Hardware stack levels used:    1
  3118 ;; Hardware stack levels required when called:    4
  3119 ;; This function calls:
  3120 ;;		_MOV_L_DC
  3121 ;;		_MOV_STOP_DC
  3122 ;; This function is called by:
  3123 ;;		_main
  3124 ;; This function uses a non-reentrant model
  3125 ;;
  3126                           
  3127                           	psect	text27
  3128  001958                     __ptext27:
  3129                           	opt callstack 0
  3130  001958                     _DOWN_PLATFORM:
  3131                           	opt callstack 26
  3132  001958                     
  3133                           ;BOTONES.c: 21:     while (PORTCbits.RC5 == 1) {
  3134  001958  EFB0  F00C         	goto	l1130
  3135  00195C                     l1128:
  3136                           
  3137                           ;BOTONES.c: 22:         MOV_L_DC();
  3138  00195C  EC59  F00D         	call	_MOV_L_DC	;wreg free
  3139  001960                     l1130:
  3140                           
  3141                           ;BOTONES.c: 21:     while (PORTCbits.RC5 == 1) {
  3142  001960  BA82               	btfsc	130,5,c	;volatile
  3143  001962  EFB5  F00C         	goto	u111
  3144  001966  EFB7  F00C         	goto	u110
  3145  00196A                     u111:
  3146  00196A  EFAE  F00C         	goto	l1128
  3147  00196E                     u110:
  3148  00196E                     
  3149                           ;BOTONES.c: 24:     MOV_STOP_DC();
  3150  00196E  EC55  F00D         	call	_MOV_STOP_DC	;wreg free
  3151  001972  0012               	return		;funcret
  3152  001974                     __end_of_DOWN_PLATFORM:
  3153                           	opt callstack 0
  3154                           
  3155 ;; *************** function _MOV_STOP_DC *****************
  3156 ;; Defined at:
  3157 ;;		line 23 in file "MOTORES_DC.c"
  3158 ;; Parameters:    Size  Location     Type
  3159 ;;		None
  3160 ;; Auto vars:     Size  Location     Type
  3161 ;;		None
  3162 ;; Return value:  Size  Location     Type
  3163 ;;                  1    wreg      void 
  3164 ;; Registers used:
  3165 ;;		None
  3166 ;; Tracked objects:
  3167 ;;		On entry : 0/0
  3168 ;;		On exit  : 0/0
  3169 ;;		Unchanged: 0/0
  3170 ;; Data sizes:     COMRAM   BANK0   BANK1   BANK2   BANK3   BANK4   BANK5   BANK6   BANK7   BANK8   BANK9  BANK10  BANK1
      +1  BANK12
  3171 ;;      Params:         0       0       0       0       0       0       0       0       0       0       0       0       
      +0       0
  3172 ;;      Locals:         0       0       0       0       0       0       0       0       0       0       0       0       
      +0       0
  3173 ;;      Temps:          0       0       0       0       0       0       0       0       0       0       0       0       
      +0       0
  3174 ;;      Totals:         0       0       0       0       0       0       0       0       0       0       0       0       
      +0       0
  3175 ;;Total ram usage:        0 bytes
  3176 ;; Hardware stack levels used:    1
  3177 ;; Hardware stack levels required when called:    3
  3178 ;; This function calls:
  3179 ;;		Nothing
  3180 ;; This function is called by:
  3181 ;;		_UP_PLATFORM
  3182 ;;		_DOWN_PLATFORM
  3183 ;; This function uses a non-reentrant model
  3184 ;;
  3185                           
  3186                           	psect	text28
  3187  001AAA                     __ptext28:
  3188                           	opt callstack 0
  3189  001AAA                     _MOV_STOP_DC:
  3190                           	opt callstack 26
  3191  001AAA  988C               	bcf	140,4,c	;volatile
  3192  001AAC  9C8C               	bcf	140,6,c	;volatile
  3193  001AAE  9A8C               	bcf	140,5,c	;volatile
  3194  001AB0  0012               	return		;funcret
  3195  001AB2                     __end_of_MOV_STOP_DC:
  3196                           	opt callstack 0
  3197                           
  3198 ;; *************** function _MOV_L_DC *****************
  3199 ;; Defined at:
  3200 ;;		line 17 in file "MOTORES_DC.c"
  3201 ;; Parameters:    Size  Location     Type
  3202 ;;		None
  3203 ;; Auto vars:     Size  Location     Type
  3204 ;;		None
  3205 ;; Return value:  Size  Location     Type
  3206 ;;                  1    wreg      void 
  3207 ;; Registers used:
  3208 ;;		None
  3209 ;; Tracked objects:
  3210 ;;		On entry : 0/0
  3211 ;;		On exit  : 0/0
  3212 ;;		Unchanged: 0/0
  3213 ;; Data sizes:     COMRAM   BANK0   BANK1   BANK2   BANK3   BANK4   BANK5   BANK6   BANK7   BANK8   BANK9  BANK10  BANK1
      +1  BANK12
  3214 ;;      Params:         0       0       0       0       0       0       0       0       0       0       0       0       
      +0       0
  3215 ;;      Locals:         0       0       0       0       0       0       0       0       0       0       0       0       
      +0       0
  3216 ;;      Temps:          0       0       0       0       0       0       0       0       0       0       0       0       
      +0       0
  3217 ;;      Totals:         0       0       0       0       0       0       0       0       0       0       0       0       
      +0       0
  3218 ;;Total ram usage:        0 bytes
  3219 ;; Hardware stack levels used:    1
  3220 ;; Hardware stack levels required when called:    3
  3221 ;; This function calls:
  3222 ;;		Nothing
  3223 ;; This function is called by:
  3224 ;;		_DOWN_PLATFORM
  3225 ;; This function uses a non-reentrant model
  3226 ;;
  3227                           
  3228                           	psect	text29
  3229  001AB2                     __ptext29:
  3230                           	opt callstack 0
  3231  001AB2                     _MOV_L_DC:
  3232                           	opt callstack 26
  3233  001AB2  888C               	bsf	140,4,c	;volatile
  3234  001AB4  8C8C               	bsf	140,6,c	;volatile
  3235  001AB6  9A8C               	bcf	140,5,c	;volatile
  3236  001AB8  0012               	return		;funcret
  3237  001ABA                     __end_of_MOV_L_DC:
  3238                           	opt callstack 0
  3239                           
  3240 ;; *************** function _INT_isr *****************
  3241 ;; Defined at:
  3242 ;;		line 197 in file "SPARC_4585.c"
  3243 ;; Parameters:    Size  Location     Type
  3244 ;;		None
  3245 ;; Auto vars:     Size  Location     Type
  3246 ;;		None
  3247 ;; Return value:  Size  Location     Type
  3248 ;;                  1    wreg      void 
  3249 ;; Registers used:
  3250 ;;		wreg, fsr0l, fsr0h, status,2, status,0, tblptrl, tblptrh, tblptru, cstack
  3251 ;; Tracked objects:
  3252 ;;		On entry : 0/0
  3253 ;;		On exit  : 0/0
  3254 ;;		Unchanged: 0/0
  3255 ;; Data sizes:     COMRAM   BANK0   BANK1   BANK2   BANK3   BANK4   BANK5   BANK6   BANK7   BANK8   BANK9  BANK10  BANK1
      +1  BANK12
  3256 ;;      Params:         0       0       0       0       0       0       0       0       0       0       0       0       
      +0       0
  3257 ;;      Locals:         0       0       0       0       0       0       0       0       0       0       0       0       
      +0       0
  3258 ;;      Temps:          6       0       0       0       0       0       0       0       0       0       0       0       
      +0       0
  3259 ;;      Totals:         6       0       0       0       0       0       0       0       0       0       0       0       
      +0       0
  3260 ;;Total ram usage:        6 bytes
  3261 ;; Hardware stack levels used:    1
  3262 ;; Hardware stack levels required when called:    2
  3263 ;; This function calls:
  3264 ;;		i2_MOV_L_PASOS_X
  3265 ;;		i2_MOV_L_PASOS_Y
  3266 ;;		i2_MOV_R_PASOS_X
  3267 ;;		i2_MOV_R_PASOS_Y
  3268 ;;		i2_SEND_STRING
  3269 ;; This function is called by:
  3270 ;;		Interrupt level 2
  3271 ;; This function uses a non-reentrant model
  3272 ;;
  3273                           
  3274                           	psect	intcode
  3275  000008                     __pintcode:
  3276                           	opt callstack 0
  3277  000008                     _INT_isr:
  3278                           	opt callstack 25
  3279                           
  3280                           ;incstack = 0
  3281  000008  823D               	bsf	int$flags,1,c	;set compiler interrupt flag (level 2)
  3282  00000A  ED3A  F009         	call	int_func,f	;refresh shadow registers
  3283                           
  3284                           	psect	intcode_body
  3285  001274                     __pintcode_body:
  3286                           	opt callstack 25
  3287  001274                     int_func:
  3288                           	opt callstack 25
  3289  001274  0006               	pop		; remove dummy address from shadow register refresh
  3290  001276  CFE9 F008          	movff	fsr0l,??_INT_isr
  3291  00127A  CFEA F009          	movff	fsr0h,??_INT_isr+1
  3292  00127E  CFF6 F00A          	movff	tblptrl,??_INT_isr+2
  3293  001282  CFF7 F00B          	movff	tblptrh,??_INT_isr+3
  3294  001286  CFF8 F00C          	movff	tblptru,??_INT_isr+4
  3295  00128A  CFF5 F00D          	movff	tablat,??_INT_isr+5
  3296  00128E                     
  3297                           ;SPARC_4585.c: 198:     if (INTCONbits.INT0IF == 1) {
  3298  00128E  A2F2               	btfss	242,1,c	;volatile
  3299  001290  EF4C  F009         	goto	i2u142_41
  3300  001294  EF4E  F009         	goto	i2u142_40
  3301  001298                     i2u142_41:
  3302  001298  EF6B  F009         	goto	i2l2090
  3303  00129C                     i2u142_40:
  3304  00129C                     
  3305                           ;SPARC_4585.c: 199:         SEND_STRING("INTERRUPCION 0");
  3306  00129C  0E47               	movlw	low STR_2
  3307  00129E  6E02               	movwf	i2SEND_STRING@PointString^0,c
  3308  0012A0  0E0D               	movlw	high STR_2
  3309  0012A2  6E03               	movwf	(i2SEND_STRING@PointString+1)^0,c
  3310  0012A4  ECB1  F009         	call	i2_SEND_STRING	;wreg free
  3311  0012A8                     
  3312                           ;SPARC_4585.c: 200:         MOV_L_PASOS_X(350, 0);
  3313  0012A8  0E01               	movlw	1
  3314  0012AA  6E02               	movwf	(i2MOV_L_PASOS_X@posicion+1)^0,c
  3315  0012AC  0E5E               	movlw	94
  3316  0012AE  6E01               	movwf	i2MOV_L_PASOS_X@posicion^0,c
  3317  0012B0  0E00               	movlw	0
  3318  0012B2  6E04               	movwf	(i2MOV_L_PASOS_X@coordenada+1)^0,c
  3319  0012B4  0E00               	movlw	0
  3320  0012B6  6E03               	movwf	i2MOV_L_PASOS_X@coordenada^0,c
  3321  0012B8  ECBB  F00A         	call	i2_MOV_L_PASOS_X	;wreg free
  3322  0012BC                     
  3323                           ;SPARC_4585.c: 201:         MOV_L_PASOS_Y(350, 0);
  3324  0012BC  0E01               	movlw	1
  3325  0012BE  6E02               	movwf	(i2MOV_L_PASOS_Y@posicion+1)^0,c
  3326  0012C0  0E5E               	movlw	94
  3327  0012C2  6E01               	movwf	i2MOV_L_PASOS_Y@posicion^0,c
  3328  0012C4  0E00               	movlw	0
  3329  0012C6  6E04               	movwf	(i2MOV_L_PASOS_Y@coordenada+1)^0,c
  3330  0012C8  0E00               	movlw	0
  3331  0012CA  6E03               	movwf	i2MOV_L_PASOS_Y@coordenada^0,c
  3332  0012CC  EC7D  F00A         	call	i2_MOV_L_PASOS_Y	;wreg free
  3333  0012D0                     
  3334                           ;SPARC_4585.c: 202:         INTCONbits.INT0IF = 0;
  3335  0012D0  92F2               	bcf	242,1,c	;volatile
  3336  0012D2                     
  3337                           ;SPARC_4585.c: 203:         INTCON3bits.INT1IF = 0;
  3338  0012D2  90F0               	bcf	240,0,c	;volatile
  3339  0012D4                     
  3340                           ;SPARC_4585.c: 204:         INTCON3bits.INT2IF = 0;
  3341  0012D4  92F0               	bcf	240,1,c	;volatile
  3342  0012D6                     i2l2090:
  3343                           
  3344                           ;SPARC_4585.c: 206:     if (INTCON3bits.INT1IF == 1) {
  3345  0012D6  A0F0               	btfss	240,0,c	;volatile
  3346  0012D8  EF70  F009         	goto	i2u143_41
  3347  0012DC  EF72  F009         	goto	i2u143_40
  3348  0012E0                     i2u143_41:
  3349  0012E0  EF87  F009         	goto	i2l2104
  3350  0012E4                     i2u143_40:
  3351  0012E4                     
  3352                           ;SPARC_4585.c: 207:         SEND_STRING("INTERRUPCION 1");
  3353  0012E4  0E56               	movlw	low STR_3
  3354  0012E6  6E02               	movwf	i2SEND_STRING@PointString^0,c
  3355  0012E8  0E0D               	movlw	high STR_3
  3356  0012EA  6E03               	movwf	(i2SEND_STRING@PointString+1)^0,c
  3357  0012EC  ECB1  F009         	call	i2_SEND_STRING	;wreg free
  3358  0012F0                     
  3359                           ;SPARC_4585.c: 208:         MOV_R_PASOS_X(0, 10);
  3360  0012F0  0E00               	movlw	0
  3361  0012F2  6E02               	movwf	(i2MOV_R_PASOS_X@posicion+1)^0,c
  3362  0012F4  0E00               	movlw	0
  3363  0012F6  6E01               	movwf	i2MOV_R_PASOS_X@posicion^0,c
  3364  0012F8  0E00               	movlw	0
  3365  0012FA  6E04               	movwf	(i2MOV_R_PASOS_X@coordenada+1)^0,c
  3366  0012FC  0E0A               	movlw	10
  3367  0012FE  6E03               	movwf	i2MOV_R_PASOS_X@coordenada^0,c
  3368  001300  EC36  F00B         	call	i2_MOV_R_PASOS_X	;wreg free
  3369  001304                     
  3370                           ;SPARC_4585.c: 209:         BuscandoHomeX = 1;
  3371  001304  0E01               	movlw	1
  3372  001306  6E3B               	movwf	_BuscandoHomeX^0,c
  3373  001308                     
  3374                           ;SPARC_4585.c: 210:         INTCONbits.INT0IF = 0;
  3375  001308  92F2               	bcf	242,1,c	;volatile
  3376  00130A                     
  3377                           ;SPARC_4585.c: 211:         INTCON3bits.INT1IF = 0;
  3378  00130A  90F0               	bcf	240,0,c	;volatile
  3379  00130C                     
  3380                           ;SPARC_4585.c: 212:         INTCON3bits.INT2IF = 0;
  3381  00130C  92F0               	bcf	240,1,c	;volatile
  3382  00130E                     i2l2104:
  3383                           
  3384                           ;SPARC_4585.c: 214:     if (INTCON3bits.INT2IF == 1) {
  3385  00130E  A2F0               	btfss	240,1,c	;volatile
  3386  001310  EF8C  F009         	goto	i2u144_41
  3387  001314  EF8E  F009         	goto	i2u144_40
  3388  001318                     i2u144_41:
  3389  001318  EFA3  F009         	goto	i2l338
  3390  00131C                     i2u144_40:
  3391  00131C                     
  3392                           ;SPARC_4585.c: 215:         SEND_STRING("INTERRUPCION 2");
  3393  00131C  0E65               	movlw	low STR_4
  3394  00131E  6E02               	movwf	i2SEND_STRING@PointString^0,c
  3395  001320  0E0D               	movlw	high STR_4
  3396  001322  6E03               	movwf	(i2SEND_STRING@PointString+1)^0,c
  3397  001324  ECB1  F009         	call	i2_SEND_STRING	;wreg free
  3398  001328                     
  3399                           ;SPARC_4585.c: 216:         MOV_R_PASOS_Y(0, 10);
  3400  001328  0E00               	movlw	0
  3401  00132A  6E02               	movwf	(i2MOV_R_PASOS_Y@posicion+1)^0,c
  3402  00132C  0E00               	movlw	0
  3403  00132E  6E01               	movwf	i2MOV_R_PASOS_Y@posicion^0,c
  3404  001330  0E00               	movlw	0
  3405  001332  6E04               	movwf	(i2MOV_R_PASOS_Y@coordenada+1)^0,c
  3406  001334  0E0A               	movlw	10
  3407  001336  6E03               	movwf	i2MOV_R_PASOS_Y@coordenada^0,c
  3408  001338  ECF9  F00A         	call	i2_MOV_R_PASOS_Y	;wreg free
  3409  00133C                     
  3410                           ;SPARC_4585.c: 217:         BuscandoHomeY = 1;
  3411  00133C  0E01               	movlw	1
  3412  00133E  6E3A               	movwf	_BuscandoHomeY^0,c
  3413  001340                     
  3414                           ;SPARC_4585.c: 218:         INTCONbits.INT0IF = 0;
  3415  001340  92F2               	bcf	242,1,c	;volatile
  3416  001342                     
  3417                           ;SPARC_4585.c: 219:         INTCON3bits.INT1IF = 0;
  3418  001342  90F0               	bcf	240,0,c	;volatile
  3419  001344                     
  3420                           ;SPARC_4585.c: 220:         INTCON3bits.INT2IF = 0;
  3421  001344  92F0               	bcf	240,1,c	;volatile
  3422  001346                     i2l338:
  3423  001346  C00D  FFF5         	movff	??_INT_isr+5,tablat
  3424  00134A  C00C  FFF8         	movff	??_INT_isr+4,tblptru
  3425  00134E  C00B  FFF7         	movff	??_INT_isr+3,tblptrh
  3426  001352  C00A  FFF6         	movff	??_INT_isr+2,tblptrl
  3427  001356  C009  FFEA         	movff	??_INT_isr+1,fsr0h
  3428  00135A  C008  FFE9         	movff	??_INT_isr,fsr0l
  3429  00135E  923D               	bcf	int$flags,1,c	;clear compiler interrupt flag (level 2)
  3430  001360  0011               	retfie		f
  3431  001362                     __end_of_INT_isr:
  3432                           	opt callstack 0
  3433                           
  3434 ;; *************** function i2_SEND_STRING *****************
  3435 ;; Defined at:
  3436 ;;		line 5 in file "SERIAL.c"
  3437 ;; Parameters:    Size  Location     Type
  3438 ;;  PointString     2    1[COMRAM] PTR unsigned char 
  3439 ;;		 -> STR_8(11), STR_7(19), STR_6(29), STR_5(22), 
  3440 ;;		 -> STR_4(15), STR_3(15), STR_2(15), main@Instruccion(6), 
  3441 ;;		 -> STR_1(15), 
  3442 ;; Auto vars:     Size  Location     Type
  3443 ;;  SEND_STRING     1    6[COMRAM] unsigned char 
  3444 ;; Return value:  Size  Location     Type
  3445 ;;                  1    wreg      void 
  3446 ;; Registers used:
  3447 ;;		wreg, fsr0l, fsr0h, status,2, status,0, tblptrl, tblptrh, tblptru, cstack
  3448 ;; Tracked objects:
  3449 ;;		On entry : 0/0
  3450 ;;		On exit  : 0/0
  3451 ;;		Unchanged: 0/0
  3452 ;; Data sizes:     COMRAM   BANK0   BANK1   BANK2   BANK3   BANK4   BANK5   BANK6   BANK7   BANK8   BANK9  BANK10  BANK1
      +1  BANK12
  3453 ;;      Params:         2       0       0       0       0       0       0       0       0       0       0       0       
      +0       0
  3454 ;;      Locals:         1       0       0       0       0       0       0       0       0       0       0       0       
      +0       0
  3455 ;;      Temps:          3       0       0       0       0       0       0       0       0       0       0       0       
      +0       0
  3456 ;;      Totals:         6       0       0       0       0       0       0       0       0       0       0       0       
      +0       0
  3457 ;;Total ram usage:        6 bytes
  3458 ;; Hardware stack levels used:    1
  3459 ;; Hardware stack levels required when called:    1
  3460 ;; This function calls:
  3461 ;;		i2_SEND_UART
  3462 ;; This function is called by:
  3463 ;;		_INT_isr
  3464 ;; This function uses a non-reentrant model
  3465 ;;
  3466                           
  3467                           	psect	text31
  3468  001362                     __ptext31:
  3469                           	opt callstack 0
  3470  001362                     i2_SEND_STRING:
  3471                           	opt callstack 25
  3472  001362                     
  3473                           ;SERIAL.c: 6:     for (unsigned char i = 0; i < 255; i++) {
  3474  001362  0E00               	movlw	0
  3475  001364  6E07               	movwf	i2SEND_STRING@i^0,c
  3476  001366                     i2l1764:
  3477  001366  2807               	incf	i2SEND_STRING@i^0,w,c
  3478  001368  A4D8               	btfss	status,2,c
  3479  00136A  EFB9  F009         	goto	i2u95_41
  3480  00136E  EFBB  F009         	goto	i2u95_40
  3481  001372                     i2u95_41:
  3482  001372  EFBD  F009         	goto	i2l1768
  3483  001376                     i2u95_40:
  3484  001376  EF18  F00A         	goto	i2l98
  3485  00137A                     i2l1768:
  3486                           
  3487                           ;SERIAL.c: 7:         if (PointString[i] < 32 || PointString[i] > 122 ) {
  3488  00137A  5007               	movf	i2SEND_STRING@i^0,w,c
  3489  00137C  2402               	addwf	i2SEND_STRING@PointString^0,w,c
  3490  00137E  6E04               	movwf	??i2_SEND_STRING^0,c
  3491  001380  0E00               	movlw	0
  3492  001382  2003               	addwfc	(i2SEND_STRING@PointString+1)^0,w,c
  3493  001384  6E05               	movwf	(??i2_SEND_STRING+1)^0,c
  3494  001386  C004  FFF6         	movff	??i2_SEND_STRING,tblptrl
  3495  00138A  C005  FFF7         	movff	??i2_SEND_STRING+1,tblptrh
  3496  00138E  6AF8               	clrf	tblptru,c
  3497  001390  0E0C               	movlw	(high __ramtop+-1)
  3498  001392  64F7               	cpfsgt	tblptrh,c
  3499  001394  D003               	bra	i2u96_47
  3500  001396  0008               	tblrd		*
  3501  001398  50F5               	movf	tablat,w,c
  3502  00139A  D005               	bra	i2u96_40
  3503  00139C                     i2u96_47:
  3504  00139C  CFF6 FFE9          	movff	tblptrl,fsr0l
  3505  0013A0  CFF7 FFEA          	movff	tblptrh,fsr0h
  3506  0013A4  50EF               	movf	indf0,w,c
  3507  0013A6                     i2u96_40:
  3508  0013A6  6E06               	movwf	(??i2_SEND_STRING+2)^0,c
  3509  0013A8  0E1F               	movlw	31
  3510  0013AA  6406               	cpfsgt	(??i2_SEND_STRING+2)^0,c
  3511  0013AC  EFDA  F009         	goto	i2u97_41
  3512  0013B0  EFDC  F009         	goto	i2u97_40
  3513  0013B4                     i2u97_41:
  3514  0013B4  EF18  F00A         	goto	i2l98
  3515  0013B8                     i2u97_40:
  3516  0013B8  5007               	movf	i2SEND_STRING@i^0,w,c
  3517  0013BA  2402               	addwf	i2SEND_STRING@PointString^0,w,c
  3518  0013BC  6E04               	movwf	??i2_SEND_STRING^0,c
  3519  0013BE  0E00               	movlw	0
  3520  0013C0  2003               	addwfc	(i2SEND_STRING@PointString+1)^0,w,c
  3521  0013C2  6E05               	movwf	(??i2_SEND_STRING+1)^0,c
  3522  0013C4  C004  FFF6         	movff	??i2_SEND_STRING,tblptrl
  3523  0013C8  C005  FFF7         	movff	??i2_SEND_STRING+1,tblptrh
  3524  0013CC  6AF8               	clrf	tblptru,c
  3525  0013CE  0E0C               	movlw	(high __ramtop+-1)
  3526  0013D0  64F7               	cpfsgt	tblptrh,c
  3527  0013D2  D003               	bra	i2u98_47
  3528  0013D4  0008               	tblrd		*
  3529  0013D6  50F5               	movf	tablat,w,c
  3530  0013D8  D005               	bra	i2u98_40
  3531  0013DA                     i2u98_47:
  3532  0013DA  CFF6 FFE9          	movff	tblptrl,fsr0l
  3533  0013DE  CFF7 FFEA          	movff	tblptrh,fsr0h
  3534  0013E2  50EF               	movf	indf0,w,c
  3535  0013E4                     i2u98_40:
  3536  0013E4  6E06               	movwf	(??i2_SEND_STRING+2)^0,c
  3537  0013E6  0E7A               	movlw	122
  3538  0013E8  6406               	cpfsgt	(??i2_SEND_STRING+2)^0,c
  3539  0013EA  EFF9  F009         	goto	i2u99_41
  3540  0013EE  EFFB  F009         	goto	i2u99_40
  3541  0013F2                     i2u99_41:
  3542  0013F2  EFFD  F009         	goto	i2l1772
  3543  0013F6                     i2u99_40:
  3544  0013F6  EF18  F00A         	goto	i2l98
  3545  0013FA                     i2l1772:
  3546                           
  3547                           ;SERIAL.c: 10:         SEND_UART(PointString[i]);
  3548  0013FA  5007               	movf	i2SEND_STRING@i^0,w,c
  3549  0013FC  2402               	addwf	i2SEND_STRING@PointString^0,w,c
  3550  0013FE  6E04               	movwf	??i2_SEND_STRING^0,c
  3551  001400  0E00               	movlw	0
  3552  001402  2003               	addwfc	(i2SEND_STRING@PointString+1)^0,w,c
  3553  001404  6E05               	movwf	(??i2_SEND_STRING+1)^0,c
  3554  001406  C004  FFF6         	movff	??i2_SEND_STRING,tblptrl
  3555  00140A  C005  FFF7         	movff	??i2_SEND_STRING+1,tblptrh
  3556  00140E  6AF8               	clrf	tblptru,c
  3557  001410  0E0C               	movlw	(high __ramtop+-1)
  3558  001412  64F7               	cpfsgt	tblptrh,c
  3559  001414  D003               	bra	i2u100_47
  3560  001416  0008               	tblrd		*
  3561  001418  50F5               	movf	tablat,w,c
  3562  00141A  D005               	bra	i2u100_40
  3563  00141C                     i2u100_47:
  3564  00141C  CFF6 FFE9          	movff	tblptrl,fsr0l
  3565  001420  CFF7 FFEA          	movff	tblptrh,fsr0h
  3566  001424  50EF               	movf	indf0,w,c
  3567  001426                     i2u100_40:
  3568  001426  EC13  F00D         	call	i2_SEND_UART
  3569  00142A                     
  3570                           ;SERIAL.c: 11:     }
  3571  00142A  2A07               	incf	i2SEND_STRING@i^0,f,c
  3572  00142C  EFB3  F009         	goto	i2l1764
  3573  001430                     i2l98:
  3574  001430  0012               	return		;funcret
  3575  001432                     __end_ofi2_SEND_STRING:
  3576                           	opt callstack 0
  3577                           
  3578 ;; *************** function i2_SEND_UART *****************
  3579 ;; Defined at:
  3580 ;;		line 16 in file "UART.c"
  3581 ;; Parameters:    Size  Location     Type
  3582 ;;  TX_Data         1    wreg     unsigned char 
  3583 ;; Auto vars:     Size  Location     Type
  3584 ;;  TX_Data         1    0[COMRAM] unsigned char 
  3585 ;; Return value:  Size  Location     Type
  3586 ;;                  1    wreg      void 
  3587 ;; Registers used:
  3588 ;;		wreg
  3589 ;; Tracked objects:
  3590 ;;		On entry : 0/0
  3591 ;;		On exit  : 0/0
  3592 ;;		Unchanged: 0/0
  3593 ;; Data sizes:     COMRAM   BANK0   BANK1   BANK2   BANK3   BANK4   BANK5   BANK6   BANK7   BANK8   BANK9  BANK10  BANK1
      +1  BANK12
  3594 ;;      Params:         0       0       0       0       0       0       0       0       0       0       0       0       
      +0       0
  3595 ;;      Locals:         1       0       0       0       0       0       0       0       0       0       0       0       
      +0       0
  3596 ;;      Temps:          0       0       0       0       0       0       0       0       0       0       0       0       
      +0       0
  3597 ;;      Totals:         1       0       0       0       0       0       0       0       0       0       0       0       
      +0       0
  3598 ;;Total ram usage:        1 bytes
  3599 ;; Hardware stack levels used:    1
  3600 ;; This function calls:
  3601 ;;		Nothing
  3602 ;; This function is called by:
  3603 ;;		i2_SEND_STRING
  3604 ;; This function uses a non-reentrant model
  3605 ;;
  3606                           
  3607                           	psect	text32
  3608  001A26                     __ptext32:
  3609                           	opt callstack 0
  3610  001A26                     i2_SEND_UART:
  3611                           	opt callstack 25
  3612                           
  3613                           ;incstack = 0
  3614                           ;i2SEND_UART@TX_Data stored from wreg
  3615  001A26  6E01               	movwf	i2SEND_UART@TX_Data^0,c
  3616  001A28                     i2l177:
  3617                           
  3618                           ;UART.c: 17:     while (TXSTAbits.TRMT == 0) {
  3619  001A28  A2AC               	btfss	172,1,c	;volatile
  3620  001A2A  EF19  F00D         	goto	i2u81_41
  3621  001A2E  EF1B  F00D         	goto	i2u81_40
  3622  001A32                     i2u81_41:
  3623  001A32  EF14  F00D         	goto	i2l177
  3624  001A36                     i2u81_40:
  3625  001A36                     
  3626                           ;UART.c: 19:     TXREG = TX_Data;
  3627  001A36  C001  FFAD         	movff	i2SEND_UART@TX_Data,4013	;volatile
  3628  001A3A  0012               	return		;funcret
  3629  001A3C                     __end_ofi2_SEND_UART:
  3630                           	opt callstack 0
  3631                           
  3632 ;; *************** function i2_MOV_R_PASOS_Y *****************
  3633 ;; Defined at:
  3634 ;;		line 51 in file "STEP_MOTOR.c"
  3635 ;; Parameters:    Size  Location     Type
  3636 ;;  posicion        2    0[COMRAM] unsigned short 
  3637 ;;  coordenada      2    2[COMRAM] unsigned short 
  3638 ;; Auto vars:     Size  Location     Type
  3639 ;;  MOV_R_PASOS_    1    4[COMRAM] unsigned char 
  3640 ;; Return value:  Size  Location     Type
  3641 ;;                  2    0[COMRAM] unsigned short 
  3642 ;; Registers used:
  3643 ;;		wreg, status,2, status,0
  3644 ;; Tracked objects:
  3645 ;;		On entry : 0/0
  3646 ;;		On exit  : 0/0
  3647 ;;		Unchanged: 0/0
  3648 ;; Data sizes:     COMRAM   BANK0   BANK1   BANK2   BANK3   BANK4   BANK5   BANK6   BANK7   BANK8   BANK9  BANK10  BANK1
      +1  BANK12
  3649 ;;      Params:         4       0       0       0       0       0       0       0       0       0       0       0       
      +0       0
  3650 ;;      Locals:         1       0       0       0       0       0       0       0       0       0       0       0       
      +0       0
  3651 ;;      Temps:          0       0       0       0       0       0       0       0       0       0       0       0       
      +0       0
  3652 ;;      Totals:         5       0       0       0       0       0       0       0       0       0       0       0       
      +0       0
  3653 ;;Total ram usage:        5 bytes
  3654 ;; Hardware stack levels used:    1
  3655 ;; This function calls:
  3656 ;;		Nothing
  3657 ;; This function is called by:
  3658 ;;		_INT_isr
  3659 ;; This function uses a non-reentrant model
  3660 ;;
  3661                           
  3662                           	psect	text33
  3663  0015F2                     __ptext33:
  3664                           	opt callstack 0
  3665  0015F2                     i2_MOV_R_PASOS_Y:
  3666                           	opt callstack 26
  3667  0015F2                     
  3668                           ;STEP_MOTOR.c: 52:     if (posicion < coordenada) {
  3669  0015F2  5003               	movf	i2MOV_R_PASOS_Y@coordenada^0,w,c
  3670  0015F4  5C01               	subwf	i2MOV_R_PASOS_Y@posicion^0,w,c
  3671  0015F6  5004               	movf	(i2MOV_R_PASOS_Y@coordenada+1)^0,w,c
  3672  0015F8  5802               	subwfb	(i2MOV_R_PASOS_Y@posicion+1)^0,w,c
  3673  0015FA  B0D8               	btfsc	status,0,c
  3674  0015FC  EF02  F00B         	goto	i2u109_41
  3675  001600  EF04  F00B         	goto	i2u109_40
  3676  001604                     i2u109_41:
  3677  001604  EF35  F00B         	goto	i2l144
  3678  001608                     i2u109_40:
  3679  001608                     
  3680                           ;STEP_MOTOR.c: 53:         PORTDbits.RD2 = 0;
  3681  001608  9483               	bcf	131,2,c	;volatile
  3682                           
  3683                           ;STEP_MOTOR.c: 54:         PORTDbits.RD3 = 1;
  3684  00160A  8683               	bsf	131,3,c	;volatile
  3685                           
  3686                           ;STEP_MOTOR.c: 55:         for (; posicion < coordenada; posicion++) {
  3687  00160C  EF29  F00B         	goto	i2l1836
  3688  001610                     i2l1822:
  3689                           
  3690                           ;STEP_MOTOR.c: 56:             for (unsigned char i = 0; i < 5; i++) {
  3691  001610  0E00               	movlw	0
  3692  001612  6E05               	movwf	i2MOV_R_PASOS_Y@i^0,c
  3693  001614  0E04               	movlw	4
  3694  001616  6405               	cpfsgt	i2MOV_R_PASOS_Y@i^0,c
  3695  001618  EF10  F00B         	goto	i2u110_41
  3696  00161C  EF12  F00B         	goto	i2u110_40
  3697  001620                     i2u110_41:
  3698  001620  EF14  F00B         	goto	i2l141
  3699  001624                     i2u110_40:
  3700  001624  EF27  F00B         	goto	i2l1834
  3701  001628                     i2l141:
  3702                           
  3703                           ;STEP_MOTOR.c: 57:                 PORTCbits.RC2 = 1;
  3704  001628  8482               	bsf	130,2,c	;volatile
  3705  00162A                     
  3706                           ;STEP_MOTOR.c: 58:                 _delay((unsigned long)((1)*(4000000/4000.0)));
  3707  00162A  0EC8               	movlw	200
  3708  00162C                     i2u155_47:
  3709  00162C  D000               	nop2	
  3710  00162E  2EE8               	decfsz	wreg,f,c
  3711  001630  D7FD               	bra	i2u155_47
  3712  001632                     
  3713                           ;STEP_MOTOR.c: 59:                 PORTCbits.RC2 = 0;
  3714  001632  9482               	bcf	130,2,c	;volatile
  3715                           
  3716                           ;STEP_MOTOR.c: 60:                 _delay((unsigned long)((1)*(4000000/4000.0)));
  3717  001634  0EC8               	movlw	200
  3718  001636                     i2u156_47:
  3719  001636  D000               	nop2	
  3720  001638  2EE8               	decfsz	wreg,f,c
  3721  00163A  D7FD               	bra	i2u156_47
  3722  00163C                     
  3723                           ;STEP_MOTOR.c: 61:             }
  3724  00163C  2A05               	incf	i2MOV_R_PASOS_Y@i^0,f,c
  3725  00163E  0E04               	movlw	4
  3726  001640  6405               	cpfsgt	i2MOV_R_PASOS_Y@i^0,c
  3727  001642  EF25  F00B         	goto	i2u111_41
  3728  001646  EF27  F00B         	goto	i2u111_40
  3729  00164A                     i2u111_41:
  3730  00164A  EF14  F00B         	goto	i2l141
  3731  00164E                     i2u111_40:
  3732  00164E                     i2l1834:
  3733                           
  3734                           ;STEP_MOTOR.c: 62:         }
  3735  00164E  4A01               	infsnz	i2MOV_R_PASOS_Y@posicion^0,f,c
  3736  001650  2A02               	incf	(i2MOV_R_PASOS_Y@posicion+1)^0,f,c
  3737  001652                     i2l1836:
  3738  001652  5003               	movf	i2MOV_R_PASOS_Y@coordenada^0,w,c
  3739  001654  5C01               	subwf	i2MOV_R_PASOS_Y@posicion^0,w,c
  3740  001656  5004               	movf	(i2MOV_R_PASOS_Y@coordenada+1)^0,w,c
  3741  001658  5802               	subwfb	(i2MOV_R_PASOS_Y@posicion+1)^0,w,c
  3742  00165A  A0D8               	btfss	status,0,c
  3743  00165C  EF32  F00B         	goto	i2u112_41
  3744  001660  EF34  F00B         	goto	i2u112_40
  3745  001664                     i2u112_41:
  3746  001664  EF08  F00B         	goto	i2l1822
  3747  001668                     i2u112_40:
  3748  001668                     
  3749                           ;STEP_MOTOR.c: 63:         PORTDbits.RD2 = 1;
  3750  001668  8483               	bsf	131,2,c	;volatile
  3751  00166A                     i2l144:
  3752  00166A  0012               	return		;funcret
  3753  00166C                     __end_ofi2_MOV_R_PASOS_Y:
  3754                           	opt callstack 0
  3755                           
  3756 ;; *************** function i2_MOV_R_PASOS_X *****************
  3757 ;; Defined at:
  3758 ;;		line 15 in file "STEP_MOTOR.c"
  3759 ;; Parameters:    Size  Location     Type
  3760 ;;  posicion        2    0[COMRAM] unsigned short 
  3761 ;;  coordenada      2    2[COMRAM] unsigned short 
  3762 ;; Auto vars:     Size  Location     Type
  3763 ;;  MOV_R_PASOS_    1    4[COMRAM] unsigned char 
  3764 ;; Return value:  Size  Location     Type
  3765 ;;                  2    0[COMRAM] unsigned short 
  3766 ;; Registers used:
  3767 ;;		wreg, status,2, status,0
  3768 ;; Tracked objects:
  3769 ;;		On entry : 0/0
  3770 ;;		On exit  : 0/0
  3771 ;;		Unchanged: 0/0
  3772 ;; Data sizes:     COMRAM   BANK0   BANK1   BANK2   BANK3   BANK4   BANK5   BANK6   BANK7   BANK8   BANK9  BANK10  BANK1
      +1  BANK12
  3773 ;;      Params:         4       0       0       0       0       0       0       0       0       0       0       0       
      +0       0
  3774 ;;      Locals:         1       0       0       0       0       0       0       0       0       0       0       0       
      +0       0
  3775 ;;      Temps:          0       0       0       0       0       0       0       0       0       0       0       0       
      +0       0
  3776 ;;      Totals:         5       0       0       0       0       0       0       0       0       0       0       0       
      +0       0
  3777 ;;Total ram usage:        5 bytes
  3778 ;; Hardware stack levels used:    1
  3779 ;; This function calls:
  3780 ;;		Nothing
  3781 ;; This function is called by:
  3782 ;;		_INT_isr
  3783 ;; This function uses a non-reentrant model
  3784 ;;
  3785                           
  3786                           	psect	text34
  3787  00166C                     __ptext34:
  3788                           	opt callstack 0
  3789  00166C                     i2_MOV_R_PASOS_X:
  3790                           	opt callstack 26
  3791  00166C                     
  3792                           ;STEP_MOTOR.c: 16:     if (posicion < coordenada) {
  3793  00166C  5003               	movf	i2MOV_R_PASOS_X@coordenada^0,w,c
  3794  00166E  5C01               	subwf	i2MOV_R_PASOS_X@posicion^0,w,c
  3795  001670  5004               	movf	(i2MOV_R_PASOS_X@coordenada+1)^0,w,c
  3796  001672  5802               	subwfb	(i2MOV_R_PASOS_X@posicion+1)^0,w,c
  3797  001674  B0D8               	btfsc	status,0,c
  3798  001676  EF3F  F00B         	goto	i2u101_41
  3799  00167A  EF41  F00B         	goto	i2u101_40
  3800  00167E                     i2u101_41:
  3801  00167E  EF72  F00B         	goto	i2l126
  3802  001682                     i2u101_40:
  3803  001682                     
  3804                           ;STEP_MOTOR.c: 17:         PORTDbits.RD0 = 0;
  3805  001682  9083               	bcf	131,0,c	;volatile
  3806                           
  3807                           ;STEP_MOTOR.c: 18:         PORTDbits.RD1 = 1;
  3808  001684  8283               	bsf	131,1,c	;volatile
  3809                           
  3810                           ;STEP_MOTOR.c: 19:         for (; posicion < coordenada; posicion++) {
  3811  001686  EF66  F00B         	goto	i2l1796
  3812  00168A                     i2l1782:
  3813                           
  3814                           ;STEP_MOTOR.c: 20:             for (unsigned char i = 0; i < 5; i++) {
  3815  00168A  0E00               	movlw	0
  3816  00168C  6E05               	movwf	i2MOV_R_PASOS_X@i^0,c
  3817  00168E  0E04               	movlw	4
  3818  001690  6405               	cpfsgt	i2MOV_R_PASOS_X@i^0,c
  3819  001692  EF4D  F00B         	goto	i2u102_41
  3820  001696  EF4F  F00B         	goto	i2u102_40
  3821  00169A                     i2u102_41:
  3822  00169A  EF51  F00B         	goto	i2l123
  3823  00169E                     i2u102_40:
  3824  00169E  EF64  F00B         	goto	i2l1794
  3825  0016A2                     i2l123:
  3826                           
  3827                           ;STEP_MOTOR.c: 21:                 PORTCbits.RC1 = 1;
  3828  0016A2  8282               	bsf	130,1,c	;volatile
  3829  0016A4                     
  3830                           ;STEP_MOTOR.c: 22:                 _delay((unsigned long)((1)*(4000000/4000.0)));
  3831  0016A4  0EC8               	movlw	200
  3832  0016A6                     i2u157_47:
  3833  0016A6  D000               	nop2	
  3834  0016A8  2EE8               	decfsz	wreg,f,c
  3835  0016AA  D7FD               	bra	i2u157_47
  3836  0016AC                     
  3837                           ;STEP_MOTOR.c: 23:                 PORTCbits.RC1 = 0;
  3838  0016AC  9282               	bcf	130,1,c	;volatile
  3839                           
  3840                           ;STEP_MOTOR.c: 24:                 _delay((unsigned long)((1)*(4000000/4000.0)));
  3841  0016AE  0EC8               	movlw	200
  3842  0016B0                     i2u158_47:
  3843  0016B0  D000               	nop2	
  3844  0016B2  2EE8               	decfsz	wreg,f,c
  3845  0016B4  D7FD               	bra	i2u158_47
  3846  0016B6                     
  3847                           ;STEP_MOTOR.c: 25:             }
  3848  0016B6  2A05               	incf	i2MOV_R_PASOS_X@i^0,f,c
  3849  0016B8  0E04               	movlw	4
  3850  0016BA  6405               	cpfsgt	i2MOV_R_PASOS_X@i^0,c
  3851  0016BC  EF62  F00B         	goto	i2u103_41
  3852  0016C0  EF64  F00B         	goto	i2u103_40
  3853  0016C4                     i2u103_41:
  3854  0016C4  EF51  F00B         	goto	i2l123
  3855  0016C8                     i2u103_40:
  3856  0016C8                     i2l1794:
  3857                           
  3858                           ;STEP_MOTOR.c: 26:         }
  3859  0016C8  4A01               	infsnz	i2MOV_R_PASOS_X@posicion^0,f,c
  3860  0016CA  2A02               	incf	(i2MOV_R_PASOS_X@posicion+1)^0,f,c
  3861  0016CC                     i2l1796:
  3862  0016CC  5003               	movf	i2MOV_R_PASOS_X@coordenada^0,w,c
  3863  0016CE  5C01               	subwf	i2MOV_R_PASOS_X@posicion^0,w,c
  3864  0016D0  5004               	movf	(i2MOV_R_PASOS_X@coordenada+1)^0,w,c
  3865  0016D2  5802               	subwfb	(i2MOV_R_PASOS_X@posicion+1)^0,w,c
  3866  0016D4  A0D8               	btfss	status,0,c
  3867  0016D6  EF6F  F00B         	goto	i2u104_41
  3868  0016DA  EF71  F00B         	goto	i2u104_40
  3869  0016DE                     i2u104_41:
  3870  0016DE  EF45  F00B         	goto	i2l1782
  3871  0016E2                     i2u104_40:
  3872  0016E2                     
  3873                           ;STEP_MOTOR.c: 27:         PORTDbits.RD0 = 1;
  3874  0016E2  8083               	bsf	131,0,c	;volatile
  3875  0016E4                     i2l126:
  3876  0016E4  0012               	return		;funcret
  3877  0016E6                     __end_ofi2_MOV_R_PASOS_X:
  3878                           	opt callstack 0
  3879                           
  3880 ;; *************** function i2_MOV_L_PASOS_Y *****************
  3881 ;; Defined at:
  3882 ;;		line 69 in file "STEP_MOTOR.c"
  3883 ;; Parameters:    Size  Location     Type
  3884 ;;  posicion        2    0[COMRAM] unsigned short 
  3885 ;;  coordenada      2    2[COMRAM] unsigned short 
  3886 ;; Auto vars:     Size  Location     Type
  3887 ;;  MOV_L_PASOS_    1    4[COMRAM] unsigned char 
  3888 ;; Return value:  Size  Location     Type
  3889 ;;                  2    0[COMRAM] unsigned short 
  3890 ;; Registers used:
  3891 ;;		wreg, status,2, status,0
  3892 ;; Tracked objects:
  3893 ;;		On entry : 0/0
  3894 ;;		On exit  : 0/0
  3895 ;;		Unchanged: 0/0
  3896 ;; Data sizes:     COMRAM   BANK0   BANK1   BANK2   BANK3   BANK4   BANK5   BANK6   BANK7   BANK8   BANK9  BANK10  BANK1
      +1  BANK12
  3897 ;;      Params:         4       0       0       0       0       0       0       0       0       0       0       0       
      +0       0
  3898 ;;      Locals:         1       0       0       0       0       0       0       0       0       0       0       0       
      +0       0
  3899 ;;      Temps:          0       0       0       0       0       0       0       0       0       0       0       0       
      +0       0
  3900 ;;      Totals:         5       0       0       0       0       0       0       0       0       0       0       0       
      +0       0
  3901 ;;Total ram usage:        5 bytes
  3902 ;; Hardware stack levels used:    1
  3903 ;; This function calls:
  3904 ;;		Nothing
  3905 ;; This function is called by:
  3906 ;;		_INT_isr
  3907 ;; This function uses a non-reentrant model
  3908 ;;
  3909                           
  3910                           	psect	text35
  3911  0014FA                     __ptext35:
  3912                           	opt callstack 0
  3913  0014FA                     i2_MOV_L_PASOS_Y:
  3914                           	opt callstack 26
  3915  0014FA                     
  3916                           ;STEP_MOTOR.c: 70:     if (posicion > coordenada) {
  3917  0014FA  5001               	movf	i2MOV_L_PASOS_Y@posicion^0,w,c
  3918  0014FC  5C03               	subwf	i2MOV_L_PASOS_Y@coordenada^0,w,c
  3919  0014FE  5002               	movf	(i2MOV_L_PASOS_Y@posicion+1)^0,w,c
  3920  001500  5804               	subwfb	(i2MOV_L_PASOS_Y@coordenada+1)^0,w,c
  3921  001502  B0D8               	btfsc	status,0,c
  3922  001504  EF86  F00A         	goto	i2u113_41
  3923  001508  EF88  F00A         	goto	i2u113_40
  3924  00150C                     i2u113_41:
  3925  00150C  EFBA  F00A         	goto	i2l153
  3926  001510                     i2u113_40:
  3927  001510                     
  3928                           ;STEP_MOTOR.c: 71:         PORTDbits.RD2 = 0;
  3929  001510  9483               	bcf	131,2,c	;volatile
  3930                           
  3931                           ;STEP_MOTOR.c: 72:         PORTDbits.RD3 = 0;
  3932  001512  9683               	bcf	131,3,c	;volatile
  3933                           
  3934                           ;STEP_MOTOR.c: 73:         for (; posicion > coordenada; posicion--) {
  3935  001514  EFAE  F00A         	goto	i2l1856
  3936  001518                     i2l1842:
  3937                           
  3938                           ;STEP_MOTOR.c: 74:             for (unsigned char i = 0; i < 5; i++) {
  3939  001518  0E00               	movlw	0
  3940  00151A  6E05               	movwf	i2MOV_L_PASOS_Y@i^0,c
  3941  00151C  0E04               	movlw	4
  3942  00151E  6405               	cpfsgt	i2MOV_L_PASOS_Y@i^0,c
  3943  001520  EF94  F00A         	goto	i2u114_41
  3944  001524  EF96  F00A         	goto	i2u114_40
  3945  001528                     i2u114_41:
  3946  001528  EF98  F00A         	goto	i2l150
  3947  00152C                     i2u114_40:
  3948  00152C  EFAB  F00A         	goto	i2l1854
  3949  001530                     i2l150:
  3950                           
  3951                           ;STEP_MOTOR.c: 75:                 PORTCbits.RC2 = 1;
  3952  001530  8482               	bsf	130,2,c	;volatile
  3953  001532                     
  3954                           ;STEP_MOTOR.c: 76:                 _delay((unsigned long)((1)*(4000000/4000.0)));
  3955  001532  0EC8               	movlw	200
  3956  001534                     i2u159_47:
  3957  001534  D000               	nop2	
  3958  001536  2EE8               	decfsz	wreg,f,c
  3959  001538  D7FD               	bra	i2u159_47
  3960  00153A                     
  3961                           ;STEP_MOTOR.c: 77:                 PORTCbits.RC2 = 0;
  3962  00153A  9482               	bcf	130,2,c	;volatile
  3963                           
  3964                           ;STEP_MOTOR.c: 78:                 _delay((unsigned long)((1)*(4000000/4000.0)));
  3965  00153C  0EC8               	movlw	200
  3966  00153E                     i2u160_47:
  3967  00153E  D000               	nop2	
  3968  001540  2EE8               	decfsz	wreg,f,c
  3969  001542  D7FD               	bra	i2u160_47
  3970  001544                     
  3971                           ;STEP_MOTOR.c: 79:             }
  3972  001544  2A05               	incf	i2MOV_L_PASOS_Y@i^0,f,c
  3973  001546  0E04               	movlw	4
  3974  001548  6405               	cpfsgt	i2MOV_L_PASOS_Y@i^0,c
  3975  00154A  EFA9  F00A         	goto	i2u115_41
  3976  00154E  EFAB  F00A         	goto	i2u115_40
  3977  001552                     i2u115_41:
  3978  001552  EF98  F00A         	goto	i2l150
  3979  001556                     i2u115_40:
  3980  001556                     i2l1854:
  3981                           
  3982                           ;STEP_MOTOR.c: 80:         }
  3983  001556  0601               	decf	i2MOV_L_PASOS_Y@posicion^0,f,c
  3984  001558  A0D8               	btfss	status,0,c
  3985  00155A  0602               	decf	(i2MOV_L_PASOS_Y@posicion+1)^0,f,c
  3986  00155C                     i2l1856:
  3987  00155C  5001               	movf	i2MOV_L_PASOS_Y@posicion^0,w,c
  3988  00155E  5C03               	subwf	i2MOV_L_PASOS_Y@coordenada^0,w,c
  3989  001560  5002               	movf	(i2MOV_L_PASOS_Y@posicion+1)^0,w,c
  3990  001562  5804               	subwfb	(i2MOV_L_PASOS_Y@coordenada+1)^0,w,c
  3991  001564  A0D8               	btfss	status,0,c
  3992  001566  EFB7  F00A         	goto	i2u116_41
  3993  00156A  EFB9  F00A         	goto	i2u116_40
  3994  00156E                     i2u116_41:
  3995  00156E  EF8C  F00A         	goto	i2l1842
  3996  001572                     i2u116_40:
  3997  001572                     
  3998                           ;STEP_MOTOR.c: 81:         PORTDbits.RD2 = 1;
  3999  001572  8483               	bsf	131,2,c	;volatile
  4000  001574                     i2l153:
  4001  001574  0012               	return		;funcret
  4002  001576                     __end_ofi2_MOV_L_PASOS_Y:
  4003                           	opt callstack 0
  4004                           
  4005 ;; *************** function i2_MOV_L_PASOS_X *****************
  4006 ;; Defined at:
  4007 ;;		line 33 in file "STEP_MOTOR.c"
  4008 ;; Parameters:    Size  Location     Type
  4009 ;;  posicion        2    0[COMRAM] unsigned short 
  4010 ;;  coordenada      2    2[COMRAM] unsigned short 
  4011 ;; Auto vars:     Size  Location     Type
  4012 ;;  MOV_L_PASOS_    1    4[COMRAM] unsigned char 
  4013 ;; Return value:  Size  Location     Type
  4014 ;;                  2    0[COMRAM] unsigned short 
  4015 ;; Registers used:
  4016 ;;		wreg, status,2, status,0
  4017 ;; Tracked objects:
  4018 ;;		On entry : 0/0
  4019 ;;		On exit  : 0/0
  4020 ;;		Unchanged: 0/0
  4021 ;; Data sizes:     COMRAM   BANK0   BANK1   BANK2   BANK3   BANK4   BANK5   BANK6   BANK7   BANK8   BANK9  BANK10  BANK1
      +1  BANK12
  4022 ;;      Params:         4       0       0       0       0       0       0       0       0       0       0       0       
      +0       0
  4023 ;;      Locals:         1       0       0       0       0       0       0       0       0       0       0       0       
      +0       0
  4024 ;;      Temps:          0       0       0       0       0       0       0       0       0       0       0       0       
      +0       0
  4025 ;;      Totals:         5       0       0       0       0       0       0       0       0       0       0       0       
      +0       0
  4026 ;;Total ram usage:        5 bytes
  4027 ;; Hardware stack levels used:    1
  4028 ;; This function calls:
  4029 ;;		Nothing
  4030 ;; This function is called by:
  4031 ;;		_INT_isr
  4032 ;; This function uses a non-reentrant model
  4033 ;;
  4034                           
  4035                           	psect	text36
  4036  001576                     __ptext36:
  4037                           	opt callstack 0
  4038  001576                     i2_MOV_L_PASOS_X:
  4039                           	opt callstack 26
  4040  001576                     
  4041                           ;STEP_MOTOR.c: 34:     if (posicion > coordenada) {
  4042  001576  5001               	movf	i2MOV_L_PASOS_X@posicion^0,w,c
  4043  001578  5C03               	subwf	i2MOV_L_PASOS_X@coordenada^0,w,c
  4044  00157A  5002               	movf	(i2MOV_L_PASOS_X@posicion+1)^0,w,c
  4045  00157C  5804               	subwfb	(i2MOV_L_PASOS_X@coordenada+1)^0,w,c
  4046  00157E  B0D8               	btfsc	status,0,c
  4047  001580  EFC4  F00A         	goto	i2u105_41
  4048  001584  EFC6  F00A         	goto	i2u105_40
  4049  001588                     i2u105_41:
  4050  001588  EFF8  F00A         	goto	i2l135
  4051  00158C                     i2u105_40:
  4052  00158C                     
  4053                           ;STEP_MOTOR.c: 35:         PORTDbits.RD0 = 0;
  4054  00158C  9083               	bcf	131,0,c	;volatile
  4055                           
  4056                           ;STEP_MOTOR.c: 36:         PORTDbits.RD1 = 0;
  4057  00158E  9283               	bcf	131,1,c	;volatile
  4058                           
  4059                           ;STEP_MOTOR.c: 37:         for (; posicion > coordenada; posicion--) {
  4060  001590  EFEC  F00A         	goto	i2l1816
  4061  001594                     i2l1802:
  4062                           
  4063                           ;STEP_MOTOR.c: 38:             for (unsigned char i = 0; i < 5; i++) {
  4064  001594  0E00               	movlw	0
  4065  001596  6E05               	movwf	i2MOV_L_PASOS_X@i^0,c
  4066  001598  0E04               	movlw	4
  4067  00159A  6405               	cpfsgt	i2MOV_L_PASOS_X@i^0,c
  4068  00159C  EFD2  F00A         	goto	i2u106_41
  4069  0015A0  EFD4  F00A         	goto	i2u106_40
  4070  0015A4                     i2u106_41:
  4071  0015A4  EFD6  F00A         	goto	i2l132
  4072  0015A8                     i2u106_40:
  4073  0015A8  EFE9  F00A         	goto	i2l1814
  4074  0015AC                     i2l132:
  4075                           
  4076                           ;STEP_MOTOR.c: 39:                 PORTCbits.RC1 = 1;
  4077  0015AC  8282               	bsf	130,1,c	;volatile
  4078  0015AE                     
  4079                           ;STEP_MOTOR.c: 40:                 _delay((unsigned long)((1)*(4000000/4000.0)));
  4080  0015AE  0EC8               	movlw	200
  4081  0015B0                     i2u161_47:
  4082  0015B0  D000               	nop2	
  4083  0015B2  2EE8               	decfsz	wreg,f,c
  4084  0015B4  D7FD               	bra	i2u161_47
  4085  0015B6                     
  4086                           ;STEP_MOTOR.c: 41:                 PORTCbits.RC1 = 0;
  4087  0015B6  9282               	bcf	130,1,c	;volatile
  4088                           
  4089                           ;STEP_MOTOR.c: 42:                 _delay((unsigned long)((1)*(4000000/4000.0)));
  4090  0015B8  0EC8               	movlw	200
  4091  0015BA                     i2u162_47:
  4092  0015BA  D000               	nop2	
  4093  0015BC  2EE8               	decfsz	wreg,f,c
  4094  0015BE  D7FD               	bra	i2u162_47
  4095  0015C0                     
  4096                           ;STEP_MOTOR.c: 43:             }
  4097  0015C0  2A05               	incf	i2MOV_L_PASOS_X@i^0,f,c
  4098  0015C2  0E04               	movlw	4
  4099  0015C4  6405               	cpfsgt	i2MOV_L_PASOS_X@i^0,c
  4100  0015C6  EFE7  F00A         	goto	i2u107_41
  4101  0015CA  EFE9  F00A         	goto	i2u107_40
  4102  0015CE                     i2u107_41:
  4103  0015CE  EFD6  F00A         	goto	i2l132
  4104  0015D2                     i2u107_40:
  4105  0015D2                     i2l1814:
  4106                           
  4107                           ;STEP_MOTOR.c: 44:         }
  4108  0015D2  0601               	decf	i2MOV_L_PASOS_X@posicion^0,f,c
  4109  0015D4  A0D8               	btfss	status,0,c
  4110  0015D6  0602               	decf	(i2MOV_L_PASOS_X@posicion+1)^0,f,c
  4111  0015D8                     i2l1816:
  4112  0015D8  5001               	movf	i2MOV_L_PASOS_X@posicion^0,w,c
  4113  0015DA  5C03               	subwf	i2MOV_L_PASOS_X@coordenada^0,w,c
  4114  0015DC  5002               	movf	(i2MOV_L_PASOS_X@posicion+1)^0,w,c
  4115  0015DE  5804               	subwfb	(i2MOV_L_PASOS_X@coordenada+1)^0,w,c
  4116  0015E0  A0D8               	btfss	status,0,c
  4117  0015E2  EFF5  F00A         	goto	i2u108_41
  4118  0015E6  EFF7  F00A         	goto	i2u108_40
  4119  0015EA                     i2u108_41:
  4120  0015EA  EFCA  F00A         	goto	i2l1802
  4121  0015EE                     i2u108_40:
  4122  0015EE                     
  4123                           ;STEP_MOTOR.c: 45:         PORTDbits.RD0 = 1;
  4124  0015EE  8083               	bsf	131,0,c	;volatile
  4125  0015F0                     i2l135:
  4126  0015F0  0012               	return		;funcret
  4127  0015F2                     __end_ofi2_MOV_L_PASOS_X:
  4128                           	opt callstack 0
  4129                           
  4130                           	psect	rparam
  4131  0000                     
  4132                           	psect	temp
  4133  00003D                     btemp:
  4134                           	opt callstack 0
  4135  00003D                     	ds	1
  4136  0000                     int$flags	set	btemp
  4137  0000                     wtemp8	set	btemp+1
  4138  0000                     ttemp5	set	btemp+1
  4139  0000                     ttemp6	set	btemp+4
  4140  0000                     ttemp7	set	btemp+8
  4141                           tosu	equ	0xFFF
  4142                           tosh	equ	0xFFE
  4143                           tosl	equ	0xFFD
  4144                           stkptr	equ	0xFFC
  4145                           pclatu	equ	0xFFB
  4146                           pclath	equ	0xFFA
  4147                           pcl	equ	0xFF9
  4148                           tblptru	equ	0xFF8
  4149                           tblptrh	equ	0xFF7
  4150                           tblptrl	equ	0xFF6
  4151                           tablat	equ	0xFF5
  4152                           prodh	equ	0xFF4
  4153                           prodl	equ	0xFF3
  4154                           indf0	equ	0xFEF
  4155                           postinc0	equ	0xFEE
  4156                           postdec0	equ	0xFED
  4157                           preinc0	equ	0xFEC
  4158                           plusw0	equ	0xFEB
  4159                           fsr0h	equ	0xFEA
  4160                           fsr0l	equ	0xFE9
  4161                           wreg	equ	0xFE8
  4162                           indf1	equ	0xFE7
  4163                           postinc1	equ	0xFE6
  4164                           postdec1	equ	0xFE5
  4165                           preinc1	equ	0xFE4
  4166                           plusw1	equ	0xFE3
  4167                           fsr1h	equ	0xFE2
  4168                           fsr1l	equ	0xFE1
  4169                           bsr	equ	0xFE0
  4170                           indf2	equ	0xFDF
  4171                           postinc2	equ	0xFDE
  4172                           postdec2	equ	0xFDD
  4173                           preinc2	equ	0xFDC
  4174                           plusw2	equ	0xFDB
  4175                           fsr2h	equ	0xFDA
  4176                           fsr2l	equ	0xFD9
  4177                           status	equ	0xFD8


Data Sizes:
    Strings     141
    Constant    0
    Data        0
    BSS         17
    Persistent  0
    Stack       0

Auto Spaces:
    Space          Size  Autos    Used
    COMRAM           94     43      60
    BANK0           160      0       0
    BANK1           256      0       0
    BANK2           256      0       0
    BANK3           256      0       0
    BANK4           256      0       0
    BANK5           256      0       0
    BANK6           256      0       0
    BANK7           256      0       0
    BANK8           256      0       0
    BANK9           256      0       0
    BANK10          256      0       0
    BANK11          256      0       0
    BANK12          256      0       0

Pointer List with Targets:

    main@Ptrcoordenadas	PTR unsigned char  size(2) Largest target is 6
		 -> main@Instruccion(COMRAM[6]), 

    RECEIVE_STRING@guardarscan	PTR unsigned char  size(2) Largest target is 6
		 -> main@Instruccion(COMRAM[6]), 

    SEND_STRING@PointString	PTR unsigned char  size(2) Largest target is 29
		 -> STR_8(CODE[11]), STR_7(CODE[19]), STR_6(CODE[29]), STR_5(CODE[22]), 
		 -> STR_4(CODE[15]), STR_3(CODE[15]), STR_2(CODE[15]), main@Instruccion(COMRAM[6]), 
		 -> STR_1(CODE[15]), 


Critical Paths under _main in COMRAM

    _main->_SEND_STRING
    _TERMINADO->_SEND_STRING
    _PROCESO->_SEND_STRING
    _ERROR_NO_COMANDO->_SEND_STRING
    _ERROR_FUERA_LIMITE->_SEND_STRING
    _SEND_STRING->_SEND_UART

Critical Paths under _INT_isr in COMRAM

    _INT_isr->i2_SEND_STRING
    i2_SEND_STRING->i2_SEND_UART

Critical Paths under _main in BANK0

    None.

Critical Paths under _INT_isr in BANK0

    None.

Critical Paths under _main in BANK1

    None.

Critical Paths under _INT_isr in BANK1

    None.

Critical Paths under _main in BANK2

    None.

Critical Paths under _INT_isr in BANK2

    None.

Critical Paths under _main in BANK3

    None.

Critical Paths under _INT_isr in BANK3

    None.

Critical Paths under _main in BANK4

    None.

Critical Paths under _INT_isr in BANK4

    None.

Critical Paths under _main in BANK5

    None.

Critical Paths under _INT_isr in BANK5

    None.

Critical Paths under _main in BANK6

    None.

Critical Paths under _INT_isr in BANK6

    None.

Critical Paths under _main in BANK7

    None.

Critical Paths under _INT_isr in BANK7

    None.

Critical Paths under _main in BANK8

    None.

Critical Paths under _INT_isr in BANK8

    None.

Critical Paths under _main in BANK9

    None.

Critical Paths under _INT_isr in BANK9

    None.

Critical Paths under _main in BANK10

    None.

Critical Paths under _INT_isr in BANK10

    None.

Critical Paths under _main in BANK11

    None.

Critical Paths under _INT_isr in BANK11

    None.

Critical Paths under _main in BANK12

    None.

Critical Paths under _INT_isr in BANK12

    None.

Call Graph Tables:

 ---------------------------------------------------------------------------------
 (Depth) Function   	        Calls       Base Space   Used Autos Params    Refs
 ---------------------------------------------------------------------------------
 (0) _main                                                23    23      0    7928
                                             20 COMRAM    23    23      0
                      _DOWN_PLATFORM
                 _ERROR_FUERA_LIMITE
                         _ERROR_LEDS
                   _ERROR_NO_COMANDO
                       _INIT_BUTTONS
                            _INIT_DC
                          _INIT_GPIO
                           _INIT_INT
                          _INIT_LEDS
                          _INIT_STEP
                          _INIT_UART
                           _LEDS_OFF
                      _MOV_L_PASOS_X
                      _MOV_L_PASOS_Y
                      _MOV_R_PASOS_X
                      _MOV_R_PASOS_Y
                            _PROCESO
                       _PROCESO_LEDS
                     _RECEIVE_STRING
                       _RECEIVE_UART
                        _SEND_STRING
                          _TERMINADO
                     _TERMINADO_LEDS
                        _UP_PLATFORM
                             ___wmul
 ---------------------------------------------------------------------------------
 (1) ___wmul                                               6     2      4     767
                                             13 COMRAM     6     2      4
 ---------------------------------------------------------------------------------
 (1) _UP_PLATFORM                                          0     0      0       0
                           _MOV_R_DC
                        _MOV_STOP_DC
 ---------------------------------------------------------------------------------
 (2) _MOV_R_DC                                             0     0      0       0
 ---------------------------------------------------------------------------------
 (1) _TERMINADO_LEDS                                       0     0      0       0
 ---------------------------------------------------------------------------------
 (1) _TERMINADO                                            0     0      0     814
                        _SEND_STRING
                          _SEND_UART
 ---------------------------------------------------------------------------------
 (1) _RECEIVE_STRING                                       4     1      3     242
                                             13 COMRAM     4     1      3
                       _RECEIVE_UART
 ---------------------------------------------------------------------------------
 (1) _RECEIVE_UART                                         0     0      0       0
 ---------------------------------------------------------------------------------
 (1) _PROCESO_LEDS                                         0     0      0       0
 ---------------------------------------------------------------------------------
 (1) _PROCESO                                              0     0      0     814
                        _SEND_STRING
                          _SEND_UART
 ---------------------------------------------------------------------------------
 (1) _MOV_R_PASOS_Y                                        5     1      4     432
                                             13 COMRAM     5     1      4
 ---------------------------------------------------------------------------------
 (1) _MOV_R_PASOS_X                                        5     1      4     432
                                             13 COMRAM     5     1      4
 ---------------------------------------------------------------------------------
 (1) _MOV_L_PASOS_Y                                        5     1      4     736
                                             13 COMRAM     5     1      4
 ---------------------------------------------------------------------------------
 (1) _MOV_L_PASOS_X                                        5     1      4     736
                                             13 COMRAM     5     1      4
 ---------------------------------------------------------------------------------
 (1) _LEDS_OFF                                             0     0      0       0
 ---------------------------------------------------------------------------------
 (1) _INIT_UART                                            0     0      0       0
 ---------------------------------------------------------------------------------
 (1) _INIT_STEP                                            0     0      0       0
 ---------------------------------------------------------------------------------
 (1) _INIT_LEDS                                            0     0      0       0
 ---------------------------------------------------------------------------------
 (1) _INIT_INT                                             0     0      0       0
 ---------------------------------------------------------------------------------
 (1) _INIT_GPIO                                            0     0      0       0
 ---------------------------------------------------------------------------------
 (1) _INIT_DC                                              0     0      0       0
 ---------------------------------------------------------------------------------
 (1) _INIT_BUTTONS                                         0     0      0       0
 ---------------------------------------------------------------------------------
 (1) _ERROR_NO_COMANDO                                     0     0      0     814
                        _SEND_STRING
                          _SEND_UART
 ---------------------------------------------------------------------------------
 (1) _ERROR_LEDS                                           0     0      0       0
 ---------------------------------------------------------------------------------
 (1) _ERROR_FUERA_LIMITE                                   0     0      0     814
                        _SEND_STRING
                          _SEND_UART
 ---------------------------------------------------------------------------------
 (2) _SEND_STRING                                          6     4      2     799
                                             14 COMRAM     6     4      2
                          _SEND_UART
 ---------------------------------------------------------------------------------
 (2) _SEND_UART                                            1     1      0      15
                                             13 COMRAM     1     1      0
 ---------------------------------------------------------------------------------
 (1) _DOWN_PLATFORM                                        0     0      0       0
                           _MOV_L_DC
                        _MOV_STOP_DC
 ---------------------------------------------------------------------------------
 (2) _MOV_STOP_DC                                          0     0      0       0
 ---------------------------------------------------------------------------------
 (2) _MOV_L_DC                                             0     0      0       0
 ---------------------------------------------------------------------------------
 Estimated maximum stack depth 2
 ---------------------------------------------------------------------------------
 (Depth) Function   	        Calls       Base Space   Used Autos Params    Refs
 ---------------------------------------------------------------------------------
 (4) _INT_isr                                              6     6      0    1142
                                              7 COMRAM     6     6      0
                    i2_MOV_L_PASOS_X
                    i2_MOV_L_PASOS_Y
                    i2_MOV_R_PASOS_X
                    i2_MOV_R_PASOS_Y
                      i2_SEND_STRING
 ---------------------------------------------------------------------------------
 (5) i2_SEND_STRING                                        6     4      2     278
                                              1 COMRAM     6     4      2
                        i2_SEND_UART
 ---------------------------------------------------------------------------------
 (6) i2_SEND_UART                                          1     1      0      22
                                              0 COMRAM     1     1      0
 ---------------------------------------------------------------------------------
 (5) i2_MOV_R_PASOS_Y                                      5     1      4     216
                                              0 COMRAM     5     1      4
 ---------------------------------------------------------------------------------
 (5) i2_MOV_R_PASOS_X                                      5     1      4     216
                                              0 COMRAM     5     1      4
 ---------------------------------------------------------------------------------
 (5) i2_MOV_L_PASOS_Y                                      5     1      4     216
                                              0 COMRAM     5     1      4
 ---------------------------------------------------------------------------------
 (5) i2_MOV_L_PASOS_X                                      5     1      4     216
                                              0 COMRAM     5     1      4
 ---------------------------------------------------------------------------------
 Estimated maximum stack depth 6
 ---------------------------------------------------------------------------------

 Call Graph Graphs:

 _main (ROOT)
   _DOWN_PLATFORM
     _MOV_L_DC
     _MOV_STOP_DC
   _ERROR_FUERA_LIMITE
     _SEND_STRING
       _SEND_UART
     _SEND_UART
   _ERROR_LEDS
   _ERROR_NO_COMANDO
     _SEND_STRING
       _SEND_UART
     _SEND_UART
   _INIT_BUTTONS
   _INIT_DC
   _INIT_GPIO
   _INIT_INT
   _INIT_LEDS
   _INIT_STEP
   _INIT_UART
   _LEDS_OFF
   _MOV_L_PASOS_X
   _MOV_L_PASOS_Y
   _MOV_R_PASOS_X
   _MOV_R_PASOS_Y
   _PROCESO
     _SEND_STRING
       _SEND_UART
     _SEND_UART
   _PROCESO_LEDS
   _RECEIVE_STRING
     _RECEIVE_UART
   _RECEIVE_UART
   _SEND_STRING
     _SEND_UART
   _TERMINADO
     _SEND_STRING
       _SEND_UART
     _SEND_UART
   _TERMINADO_LEDS
   _UP_PLATFORM
     _MOV_R_DC
     _MOV_STOP_DC
   ___wmul

 _INT_isr (ROOT)
   i2_MOV_L_PASOS_X
   i2_MOV_L_PASOS_Y
   i2_MOV_R_PASOS_X
   i2_MOV_R_PASOS_Y
   i2_SEND_STRING
     i2_SEND_UART

 Address spaces:
Name               Size   Autos  Total    Cost      Usage
BIGRAM             CFF      0       0      31        0.0%
EEDATA             400      0       0       0        0.0%
BITBANK12          100      0       0      29        0.0%
BANK12             100      0       0      30        0.0%
BITBANK11          100      0       0      27        0.0%
BANK11             100      0       0      28        0.0%
BITBANK10          100      0       0      25        0.0%
BANK10             100      0       0      26        0.0%
BITBANK9           100      0       0      23        0.0%
BANK9              100      0       0      24        0.0%
BITBANK8           100      0       0      21        0.0%
BANK8              100      0       0      22        0.0%
BITBANK7           100      0       0      18        0.0%
BANK7              100      0       0      19        0.0%
BITBANK6           100      0       0      16        0.0%
BANK6              100      0       0      17        0.0%
BITBANK5           100      0       0      14        0.0%
BANK5              100      0       0      15        0.0%
BITBANK4           100      0       0      12        0.0%
BANK4              100      0       0      13        0.0%
BITBANK3           100      0       0      10        0.0%
BANK3              100      0       0      11        0.0%
BITBANK2           100      0       0       8        0.0%
BANK2              100      0       0       9        0.0%
BITBANK1           100      0       0       6        0.0%
BANK1              100      0       0       7        0.0%
BITBANK0            A0      0       0       4        0.0%
BANK0               A0      0       0       5        0.0%
BITCOMRAM           5E      0       0       0        0.0%
COMRAM              5E     2B      3C       1       63.8%
BITSFR_3             0      0       0     200        0.0%
SFR_3                0      0       0     200        0.0%
BITSFR_2             0      0       0     200        0.0%
SFR_2                0      0       0     200        0.0%
BITSFR_1             0      0       0     200        0.0%
SFR_1                0      0       0     200        0.0%
BITSFR               0      0       0     200        0.0%
SFR                  0      0       0     200        0.0%
STACK                0      0       0       2        0.0%
NULL                 0      0       0       0        0.0%
ABS                  0      0      3C      20        0.0%
DATA                 0      0      3C       3        0.0%
CODE                 0      0       0       0        0.0%


Microchip Technology PIC18 Macro Assembler V2.10 build 88905656 
Symbol Table                                                                                   Wed Dec 04 15:47:43 2019

               main@Decenasx 0019                 main@Decenasy 001F                _DOWN_PLATFORM 1958  
                          _X 0036                            _Y 0034                           l21 1AA0  
                         l15 1A9A                           l33 1972                           l17 1A9C  
                         l19 1A9E                           l51 1A92                           l27 1956  
                         l44 1A68                           l60 1A6A                           l53 1A94  
                         l62 1A6C                           l71 1AB4                           l55 1A96  
                         l80 1AAC                           l64 1A6E                           l73 1AB6  
                         l57 1A98                           l82 1AAE                           l66 1A70  
                         l75 1AB8                           l84 1AB0                           l69 1AB2  
                         l78 1AAA                           l98 14F8                           u10 1A20  
                         u11 1A1C                           u80 19B6                           u81 19B2  
        ___wmul@multiplicand 0010                main@Centenasx 0017                main@Centenasy 001D  
                ?_ERROR_LEDS 0001                          l104 18F0                          l123 186E  
                        l132 1780                          l117 1A5A                          l125 18AE  
                        l141 17F8                          l134 17C2                          l150 1708  
                        l126 18C0                          l135 17D4                          l143 1838  
                        l152 174A                          l144 184A                          l153 175C  
                        l402 1A72                          l411 1916                          l180 1A24  
                        l404 1A74                          l341 193A                          l350 19F4  
                        l174 1A4C                          l406 1A76                          l183 19A8  
                        l408 1A78                          l177 1A12                          l353 1A0E  
                        l185 19B6                          l370 1A8E                          l186 19C0  
                        l372 1A90                          l356 19A6                          l381 1A88  
                        l390 1AA8                          l366 1A8A                          l375 1A82  
                        l359 19DA                          l384 1AA2                          l368 1A8C  
                        l377 1A84                          l393 1A7A                          l386 1AA4  
                        l379 1A86                          l395 1A7C                          l388 1AA6  
                        l397 1A7E                          l399 1A80                          u100 1952  
                        u101 194E                          u110 196E                          u111 196A  
                        u800 14F8                          u801 14F4                          u900 181E  
                        u820 18F0                          u901 181A                          u821 18EC  
                        u750 1462                          u830 1862                          u910 1838  
                        u831 185E                          u911 1834                          u760 1474  
                        u920 16FC                          u840 1894                          u761 1470  
                        u921 16F8                          u841 1890                          u770 14A0  
                        u930 172E                          u850 18AE                          u931 172A  
                        u851 18AA                          u780 14B2                          u860 1774  
                        u940 174A                          u781 14AE                          u757 1458  
                        u861 1770                          u941 1746                          u790 14E2  
                        u870 17A6                          u871 17A2                          u880 17C2  
                        u777 1496                          u881 17BE                          u890 17EC  
                        u891 17E8                          u797 14D8                  main@Unidadx 001B  
                main@Unidady 0021                          wreg 000FE8      i2MOV_L_PASOS_X@posicion 0001  
    i2MOV_R_PASOS_X@posicion 0001                 __CFG_LVP$OFF 000000              __end_of_INIT_DC 1A9A  
               __CFG_WDT$OFF 000000                         l1120 1940                         l2000 101C  
                       l1130 1960                         l1106 19A8                         l1122 1944  
                       l2010 10A0                         l2002 103C                         l1132 196E  
                       l1108 19BA                         l1124 1952                         l2020 1110  
                       l2012 10C0                         l2004 105C                         l1126 1958  
                       l1134 1A5C                         l1230 1A3C                         l1118 193C  
                       l2030 1148                         l2022 1114                         l2014 10CC  
                       l2006 1068                         l1128 195C                         l1136 1A60  
                       l1232 1A40                         l2040 1186                         l2032 114C  
                       l2024 1118                         l2016 10E4                         l2008 1080  
                       l1138 1A62                         l1234 1918                         l2050 11D6  
                       l2042 119C                         l2034 1150                         l2026 112E  
                       l2018 10FA                         l1084 1A12                         l1148 1A4E  
                       l2060 122A                         l2052 11F2                         l2044 11A0  
                       l2036 1166                         l2028 1144                         l1086 1A20  
                       l2070 1240                         l2062 122C                         l2054 1208  
                       l2046 11BC                         l2038 116A                         l2064 1230  
                       l2056 120C                         l2048 11D2                         l2072 1248  
                       l2074 125A                         l2066 1234                         l2058 1228  
                       l2068 1238                         l1630 1474                         l1622 1432  
                       l1702 17FA                         l1710 1822                         l1632 14B6  
                       l1712 16E6                         l1704 1802                         l1634 14E6  
                       l1722 170A                         l1730 1734                         l1714 16FC  
                       l1706 180C                         l1650 18DE                         l1636 14E8  
                       l1628 1436                         l1732 19DC                         l1724 1712  
                       l1716 1704                         l1652 184C                         l1708 181E  
                       l1740 19C8                         l1644 18C2                         l1900 0E88  
                       l1750 19F6                         l1734 19E2                         l1726 171C  
                       l1662 1870                         l1670 1898                         l1654 1862  
                       l1742 19D4                         l1646 18CA                         l1910 0EC6  
                       l1902 0E9A                         l1752 19FC                         l1736 19EE  
                       l1672 175E                         l1728 172E                         l1664 1878  
                       l1656 186A                         l1648 18DC                         l1744 198E  
                       l1920 0EE8                         l1904 0EAC                         l1912 0ECA  
                       l1754 1A08                         l1682 1782                         l1690 17AC  
                       l1674 1774                         l1666 1882                         l1738 19C2  
                       l1746 1994                         l1930 0F2A                         l1922 0EEA  
                       l1914 0EDC                         l1906 0EBE                         l1684 178A  
                       l1676 177C                         l1668 1894                         l1692 17D6  
                       l1748 19A0                         l1756 18F2                         l1940 0F44  
                       l1932 0F2C                         l1924 0F06                         l1916 0EE0  
                       l1908 0EC2                         l1860 0DA4                         l1686 1794  
                       l1694 17EC                         l1758 190E                         l1942 0F48  
                       l1950 0F5E                         l1934 0F2E                         l1926 0F22  
                       l1918 0EE4                         l1870 0DBC                         l1862 0DAC  
                       l1688 17A6                         l1696 17F4                         l1960 0F7E  
                       l1952 0F70                         l1944 0F4A                         l1936 0F30  
                       l1928 0F26                         l1880 0E02                         l1872 0DC0  
                       l1864 0DB0                         l1970 0FAC                         l1962 0F8E  
                       l1954 0F74                         l1946 0F4E                         l1938 0F32  
                       l1890 0E4C                         l1874 0DC6                         l1882 0E12  
                       l1866 0DB4                         l1858 0D90                         l1972 0FB0  
                       l1964 0F90                         l1956 0F78                         l1980 0FB8  
                       l1948 0F56                         l1892 0E50                         l1884 0E22  
                       l1876 0DDA                         l1868 0DB8                         l1990 0FDC  
                       l1982 0FCA                         l1974 0FB2                         l1966 0FA6  
                       l1958 0F7C                         l1886 0E36                         l1894 0E5C  
                       l1878 0DEE                         l1984 0FCE                         l1976 0FB4  
                       l1968 0FA8                         l1896 0E70                         l1992 0FE4  
                       l1888 0E3E                         l1994 0FF8                         l1986 0FD0  
                       l1978 0FB6                         l1898 0E76                         l1996 1000  
                       l1988 0FD4                         l1998 1010                         STR_1 0D74  
                       STR_2 0D47                         STR_3 0D56                         STR_4 0D65  
                       STR_5 0D1E                         STR_6 0D01                         STR_7 0D34  
                       STR_8 0D83      i2MOV_L_PASOS_Y@posicion 0001                         u1200 0E32  
                       u1201 0E2E      i2MOV_R_PASOS_Y@posicion 0001                         u1210 0E4C  
                       u1211 0E48                         u1300 0FCA                         u1220 0E6C  
                       u1301 0FC6                         u1221 0E68                         u1310 0FF4  
                       u1230 0E88                         u1311 0FF0                         u1231 0E84  
                       u1400 125A                         u1320 10FA                         u1240 0E9A  
                       u1401 1256                         u1321 10F6                         u1241 0E96  
                       u1410 126C                         u1330 1110                         u1250 0EAC  
                       u1170 0DEA                         u1411 1268                         u1331 110C  
                       u1251 0EA8                         u1171 0DE6                         u1340 112E  
                       u1260 0EBE                         u1180 0E12                         u1341 112A  
                       u1261 0EBA                         u1181 0E0E                         u1350 1144  
                       u1270 0EDC                         u1190 0E22                         u1351 1140  
                       u1271 0ED8                         u1191 0E1E                         u1360 1166  
                       u1280 0F44                         u1361 1162                         u1281 0F40  
                       u1370 119C                         u1290 0F70                         u1507 187C  
                       u1371 1198                         u1291 0F6C                         u1380 11D2  
                       u1517 170C                         u1381 11CE                         u1390 1208  
                       u1527 1716                         u1391 1204                         u1537 1784  
                       u1457 0F84                         u1547 178E                         u1467 0F9A  
                       u1477 17FC                         u1487 1806                         u1497 1872  
                       i2l98 1430              __end_of_INT_isr 1362              __end_of_PROCESO 19DC  
                       _main 0D90                         fsr0h 000FEA                         indf0 000FEF  
                       fsr0l 000FE9                         indf2 000FDF                         fsr2l 000FD9  
                       btemp 003D                         prodh 000FF4                         prodl 000FF3  
                       start 000E                  _UP_PLATFORM 193C      __size_of_RECEIVE_STRING 0030  
         __size_of_INIT_LEDS 0008           __size_of_INIT_GPIO 000E           __size_of_INIT_UART 0012  
         __size_of_INIT_STEP 000E                __CFG_MCLRE$ON 000000               ?_DOWN_PLATFORM 0001  
               ___param_bank 000000             __end_of_LEDS_OFF 1A8A             __end_of_INIT_INT 193C  
         __size_of_SEND_UART 0016                        ?_main 0001                        _CMCON 000FB4  
              ?_INIT_BUTTONS 0001                        i2l123 16A2                        i2l132 15AC  
                      i2l125 16E2                        i2l141 1628                        i2l134 15EE  
                      i2l150 1530                        i2l126 16E4                        i2l135 15F0  
                      i2l143 1668                        i2l152 1572                        i2l144 166A  
                      i2l153 1574                        i2l180 1A3A                        i2l177 1A28  
                      i2l338 1346           __size_of_TERMINADO 001A                        _RCREG 000FAE  
                      _RCSTA 000FAB                        _SPBRG 000FAF                        _PORTA 000F80  
                      _PORTB 000F81                        _PORTC 000F82                        _PORTD 000F83  
                      _PORTE 000F84                        _TXREG 000FAD                        _TXSTA 000FAC  
              ?_RECEIVE_UART 0001             __end_of_MOV_L_DC 1ABA               _TERMINADO_LEDS 1A72  
           __end_of_MOV_R_DC 1A72              RECEIVE_STRING@i 0011                        tablat 000FF5  
            i2_MOV_L_PASOS_X 1576              i2_MOV_L_PASOS_Y 14FA                        ttemp5 003E  
                      ttemp6 0041                        ttemp7 0045                        status 000FD8  
                      wtemp8 003E          __size_of_ERROR_LEDS 0008     i2SEND_STRING@PointString 0002  
               ?_SEND_STRING 000F                 ?i2_SEND_UART 0001              __initialization 1974  
 __end_of_ERROR_FUERA_LIMITE 1A10                 __end_of_main 1274              i2_MOV_R_PASOS_X 166C  
            i2_MOV_R_PASOS_Y 15F2               ??_INIT_BUTTONS 000E                       ??_main 0015  
              __activetblptr 000002               ??_RECEIVE_UART 000E       __end_of_TERMINADO_LEDS 1A7A  
                  ??_INIT_DC 000E            __end_of_INIT_LEDS 1A92            __end_of_INIT_GPIO 1A6A  
          __end_of_INIT_UART 1A4E            __end_of_INIT_STEP 1A5C                    ??_INT_isr 0008  
                  ??_PROCESO 0015             i2MOV_L_PASOS_X@i 0005             i2MOV_L_PASOS_Y@i 0005  
                     _ADCON1 000FC1                       i2l2100 130A                       i2l2110 133C  
                     i2l2102 130C                       i2l2112 1340                       i2l2104 130E  
                     i2l2114 1342                       i2l2106 131C                       i2l2116 1344  
                     i2l2108 1328                       i2l2080 12A8                       i2l2082 12BC  
                     i2l2090 12D6                       i2l2092 12E4                       i2l2084 12D0  
                     i2l2076 128E                       i2l2094 12F0                       i2l2086 12D2  
                     i2l2078 129C                       i2l1800 158C                       i2l1640 1A36  
                     i2l2096 1304                       i2l2088 12D4                       i2l1810 15B6  
                     i2l1802 1594                       i2l2098 1308                       i2l1812 15C0  
                     i2l1804 1598                       i2l1820 1608                       i2l1814 15D2  
                     i2l1830 1632                       i2l1822 1610                       i2l1638 1A28  
                     i2l1808 15AE                       i2l1816 15D8                       i2l1840 1510  
                     i2l1832 163C                       i2l1824 1614                       i2l1850 153A  
                     i2l1842 1518                       i2l1834 164E                       i2l1818 15F2  
                     i2l1770 13B8                       i2l1762 1362                       i2l1852 1544  
                     i2l1844 151C                       i2l1780 1682                       i2l1828 162A  
                     i2l1836 1652                       i2l1772 13FA                       i2l1764 1366  
                     i2l1854 1556                       i2l1838 14FA                       i2l1790 16AC  
                     i2l1782 168A                       i2l1774 142A                       i2l1848 1532  
                     i2l1856 155C                       i2l1792 16B6                       i2l1784 168E  
                     i2l1768 137A                       i2l1794 16C8                       i2l1778 166C  
                     i2l1788 16A4                       i2l1796 16CC                       i2l1798 1576  
                     _OSCCON 000FD3            __end_of_SEND_UART 1A26            __end_of_TERMINADO 19A8  
               ?_MOV_STOP_DC 0001            ?_ERROR_NO_COMANDO 0001              ??_DOWN_PLATFORM 000E  
         ??_ERROR_NO_COMANDO 0015                       ___wmul 18F2                       clear_0 197A  
            ?_TERMINADO_LEDS 0001        __end_of_MOV_L_PASOS_X 17D6        __end_of_MOV_L_PASOS_Y 175E  
               __mediumconst 0000                       tblptrh 000FF7                       tblptrl 000FF6  
                     tblptru 000FF8      __end_ofi2_MOV_L_PASOS_X 15F2      __end_ofi2_MOV_L_PASOS_Y 1576  
                  ?_LEDS_OFF 0001                   __accesstop 0060      __end_of__initialization 1980  
            __CFG_PBADEN$OFF 000000        __end_of_MOV_R_PASOS_X 18C2        __end_of_MOV_R_PASOS_Y 184C  
                  ?_INIT_INT 0001      MOV_L_PASOS_X@coordenada 0010                ___rparam_used 000001  
             _RECEIVE_STRING 18C2      MOV_R_PASOS_X@coordenada 0010      __end_ofi2_MOV_R_PASOS_X 16E6  
    __end_ofi2_MOV_R_PASOS_Y 166C               __pcstackCOMRAM 0001             i2MOV_R_PASOS_X@i 0005  
           i2MOV_R_PASOS_Y@i 0005                    ?_MOV_L_DC 0001                    ?_MOV_R_DC 0001  
         main@Ptrcoordenadas 0023                 ??_ERROR_LEDS 000E              main@Instruccion 0026  
    MOV_L_PASOS_Y@coordenada 0010      MOV_R_PASOS_Y@coordenada 0010                   ??_LEDS_OFF 000E  
     __end_of_RECEIVE_STRING 18F2         __end_of_INIT_BUTTONS 1AA2                   ??_INIT_INT 000E  
         __end_of_ERROR_LEDS 1AAA                 ?_UP_PLATFORM 0001         __end_of_RECEIVE_UART 19C2  
              ?_PROCESO_LEDS 0001               MOV_L_PASOS_X@i 0012               MOV_L_PASOS_Y@i 0012  
                    ?___wmul 000E                   ??_MOV_L_DC 000E                   ??_MOV_R_DC 000E  
       __size_of_SEND_STRING 00C8         __size_ofi2_SEND_UART 0016                      _INIT_DC 1A92  
                _TaskReceive 0039                      _INT_isr 0008                      i2u81_40 1A36  
                    i2u81_41 1A32                      _PROCESO 19C2                      i2u95_40 1376  
                    i2u95_41 1372             ?i2_MOV_L_PASOS_X 0001             ?i2_MOV_L_PASOS_Y 0001  
                    i2u96_40 13A6                      i2u96_47 139C                      i2u97_40 13B8  
                    i2u97_41 13B4                      i2u98_40 13E4                      i2u98_47 13DA  
                    i2u99_40 13F6                      i2u99_41 13F2       __size_ofi2_SEND_STRING 00D0  
                    _RX_Data 003C              ?_RECEIVE_STRING 000E                      _AjusteZ 0038  
           ?i2_MOV_R_PASOS_X 0001             ?i2_MOV_R_PASOS_Y 0001               ??_PROCESO_LEDS 000E  
                    __Hparam 0000                      __Lparam 0000         __size_of_MOV_STOP_DC 0008  
           SEND_UART@TX_Data 000E              __size_of___wmul 0026                 __psmallconst 0D00  
                    __pcinit 1974                      __ramtop 0D00                      __ptext0 0D90  
                    __ptext1 18F2                      __ptext2 193C                      __ptext3 1A6A  
                    __ptext4 1A72                      __ptext5 198E                      __ptext6 18C2  
                    __ptext7 19A8                      __ptext8 1A7A                      __ptext9 19C2  
         _ERROR_FUERA_LIMITE 19F6               MOV_R_PASOS_X@i 0012               MOV_R_PASOS_Y@i 0012  
             __pintcode_body 1274         end_of_initialization 1980          ?_ERROR_FUERA_LIMITE 0001  
                  _INIT_LEDS 1A8A                    _INIT_GPIO 1A5C                    _INIT_UART 1A3C  
                  _INIT_STEP 1A4E                __Lmediumconst 0000                      int_func 1274  
                  _SEND_UART 1A10                    _RCSTAbits 000FAB                i2_SEND_STRING 1362  
                  _TERMINADO 198E                      postinc0 000FEE         ??_ERROR_FUERA_LIMITE 0015  
           ??_TERMINADO_LEDS 000E                    _PORTAbits 000F80                    _PORTCbits 000F82  
                  _PORTDbits 000F83                    _PORTEbits 000F84    __size_of_ERROR_NO_COMANDO 001A  
                  _TRISAbits 000F92                    _TRISBbits 000F93                    _TRISCbits 000F94  
                  _TRISDbits 000F95                    _TRISEbits 000F96        __size_of_INIT_BUTTONS 0008  
                 ?_INIT_LEDS 0001                   ?_INIT_GPIO 0001                   ?_INIT_UART 0001  
                 ?_INIT_STEP 0001        __size_of_RECEIVE_UART 001A                    _TXSTAbits 000FAC  
          __size_of_LEDS_OFF 0008            __size_of_INIT_INT 0024                   ?_SEND_UART 0001  
      __end_of_DOWN_PLATFORM 1974               ?i2_SEND_STRING 0002         __size_of_UP_PLATFORM 001C  
                 ?_TERMINADO 0001    RECEIVE_STRING@guardarscan 000E               __end_of___wmul 1918  
          __size_of_MOV_L_DC 0008            __size_of_MOV_R_DC 0008                 _INIT_BUTTONS 1A9A  
        start_initialization 1974                 _RECEIVE_UART 19A8         __end_of_PROCESO_LEDS 1A82  
           __CFG_OSC$IRCIO67 000000       __size_of_MOV_L_PASOS_X 0078       __size_of_MOV_L_PASOS_Y 0078  
               SEND_STRING@i 0014                     ??___wmul 0012                    _PosicionX 002E  
                  _PosicionY 002C    i2MOV_L_PASOS_X@coordenada 0003    i2MOV_R_PASOS_X@coordenada 0003  
     __size_of_MOV_R_PASOS_X 0076       __size_of_MOV_R_PASOS_Y 0076                     ?_INIT_DC 0001  
                __pbssCOMRAM 002C                     ?_INT_isr 0001                     ?_PROCESO 0001  
           ??_RECEIVE_STRING 0011                  ??_INIT_LEDS 000E                  ??_INIT_GPIO 000E  
                ??_INIT_UART 000E                  ??_INIT_STEP 000E    i2MOV_L_PASOS_Y@coordenada 0003  
  i2MOV_R_PASOS_Y@coordenada 0003              ??i2_SEND_STRING 0004                ??_SEND_STRING 0011  
              ??i2_SEND_UART 0001                  ??_SEND_UART 000E                    __pintcode 0008  
                ??_TERMINADO 0015             _ERROR_NO_COMANDO 19DC                  __smallconst 0D00  
              _MOV_L_PASOS_X 175E                _MOV_L_PASOS_Y 16E6                     _LEDS_OFF 1A82  
RECEIVE_STRING@numcaracteres 0010               ___wmul@product 0012                     _LATBbits 000F8A  
                   _LATDbits 000F8C     __size_ofi2_MOV_L_PASOS_X 007C     __size_ofi2_MOV_L_PASOS_Y 007C  
                   _INIT_INT 1918                _MOV_R_PASOS_X 184C                _MOV_R_PASOS_Y 17D6  
              ??_MOV_STOP_DC 000E                     i2u100_40 1426                     i2u100_47 141C  
                   i2u101_40 1682                     i2u101_41 167E                     i2u102_40 169E  
                   i2u110_40 1624                     i2u102_41 169A                     i2u110_41 1620  
                   i2u103_40 16C8                     i2u111_40 164E                     i2u103_41 16C4  
                   i2u111_41 164A                     i2u104_40 16E2                     i2u112_40 1668  
                   i2u104_41 16DE                     i2u112_41 1664                     i2u105_40 158C  
                   i2u113_40 1510                     i2u105_41 1588                     i2u113_41 150C  
                   i2u106_40 15A8                     i2u114_40 152C                     i2u106_41 15A4  
                   i2u114_41 1528                     i2u107_40 15D2                     i2u115_40 1556  
                   i2u107_41 15CE                     i2u115_41 1552                     i2u108_40 15EE  
                   i2u116_40 1572                     i2u108_41 15EA                     i2u116_41 156E  
                   i2u109_40 1608                     i2u109_41 1604                     i2u142_40 129C  
                   i2u142_41 1298                     i2u143_40 12E4                     i2u143_41 12E0  
                   i2u144_40 131C                     i2u144_41 1318                     i2u160_47 153E  
                   i2u161_47 15B0                     i2u162_47 15BA                     i2u155_47 162C  
                   i2u156_47 1636                     i2u157_47 16A6                     i2u158_47 16B0  
                   i2u159_47 1534                     _PIR1bits 000F9E                     _RCONbits 000FD0  
     SEND_STRING@PointString 000F                     _MOV_L_DC 1AB2                     _MOV_R_DC 1A6A  
   __size_ofi2_MOV_R_PASOS_X 007A     __size_ofi2_MOV_R_PASOS_Y 007A          __end_of_SEND_STRING 14FA  
        __end_ofi2_SEND_UART 1A3C        __size_of_PROCESO_LEDS 0008            ___wmul@multiplier 000E  
         i2SEND_UART@TX_Data 0001               ?_MOV_L_PASOS_X 000E               ?_MOV_L_PASOS_Y 000E  
           __size_of_INIT_DC 0008             __size_of_INT_isr 135A             __size_of_PROCESO 001A  
                _INTCON2bits 000FF1                  _INTCON3bits 000FF0                     _XReceive 0032  
                   _YReceive 0030               ?_MOV_R_PASOS_X 000E               ?_MOV_R_PASOS_Y 000E  
                   __Hrparam 0000                     __Lrparam 0000                 _PROCESO_LEDS 1A7A  
        __end_of_MOV_STOP_DC 1AB2               i2SEND_STRING@i 0007  __size_of_ERROR_FUERA_LIMITE 001A  
                   __ptext10 17D6                     __ptext11 184C                     __ptext20 1A92  
                   __ptext12 16E6                     __ptext21 1A9A                     __ptext13 175E  
                   __ptext22 19DC                     __ptext14 1A82                     __ptext31 1362  
                   __ptext23 1AA2                     __ptext15 1A3C                     __ptext32 1A26  
                   __ptext24 19F6                     __ptext16 1A4E                     __ptext33 15F2  
                   __ptext25 1432                     __ptext17 1A8A                     __ptext34 166C  
                   __ptext26 1A10                     __ptext18 1918                     __ptext35 14FA  
                   __ptext27 1958                     __ptext19 1A5C                     __ptext36 1576  
                   __ptext28 1AAA                     __ptext29 1AB2        MOV_L_PASOS_X@posicion 000E  
      MOV_R_PASOS_X@posicion 000E        MOV_L_PASOS_Y@posicion 000E        MOV_R_PASOS_Y@posicion 000E  
              __size_of_main 04E4                ??_UP_PLATFORM 000E                  _SEND_STRING 1432  
                i2_SEND_UART 1A26                   _CVRCONbits 000FB5                     int$flags 003D  
          ??i2_MOV_L_PASOS_X 0005            ??i2_MOV_L_PASOS_Y 0005                     main@Task 0025  
                 _ERROR_LEDS 1AA2              ??_MOV_L_PASOS_X 0012              ??_MOV_L_PASOS_Y 0012  
                 _INTCONbits 000FF2            ??i2_MOV_R_PASOS_X 0005            ??i2_MOV_R_PASOS_Y 0005  
    __size_of_TERMINADO_LEDS 0008       __size_of_DOWN_PLATFORM 001C                     intlevel2 0000  
            ??_MOV_R_PASOS_X 0012              ??_MOV_R_PASOS_Y 0012     __end_of_ERROR_NO_COMANDO 19F6  
                _MOV_STOP_DC 1AAA                _BuscandoHomeX 003B                _BuscandoHomeY 003A  
        __end_of_UP_PLATFORM 1958        __end_ofi2_SEND_STRING 1432  
